00000400 CC                                           INT 3 
00000401 CC                                           INT 3 
00000402 CC                                           INT 3 
00000403 CC                                           INT 3 
00000404 CC                                           INT 3 
00000405 E9 46 02 00 00                               JMP 650h
0000040A E9 11 00 00 00                               JMP 420h
0000040F CC                                           INT 3 
00000410 CC                                           INT 3 
00000411 CC                                           INT 3 
00000412 CC                                           INT 3 
00000413 CC                                           INT 3 
00000414 CC                                           INT 3 
00000415 CC                                           INT 3 
00000416 CC                                           INT 3 
00000417 CC                                           INT 3 
00000418 CC                                           INT 3 
00000419 CC                                           INT 3 
0000041A CC                                           INT 3 
0000041B CC                                           INT 3 
0000041C CC                                           INT 3 
0000041D CC                                           INT 3 
0000041E CC                                           INT 3 
0000041F CC                                           INT 3 
00000420 44 89 4C 24 20                               MOV DWORD PTR [20h], R9D
00000425 4C 89 44 24 18                               MOV QWORD PTR [18h], R8
0000042A 48 89 54 24 10                               MOV QWORD PTR [10h], RDX
0000042F 48 89 4C 24 08                               MOV QWORD PTR [8h], RCX
00000434 57                                           PUSH RDI
00000435 48 81 EC 20 01 00 00                         SUB RSP, 120h
0000043C 48 8B FC                                     MOV RDI, RSP
0000043F B9 48 00 00 00                               MOV ECX, 48h
00000444 B8 CC CC CC CC                               MOV EAX, cccccccch
00000449 F3 AB                                        REP STOSD 
0000044B 48 8B 8C 24 30 01 00 00                      MOV RCX, QWORD PTR [130h]
00000453 C7 44 24 70 50 00 00 00                      MOV DWORD PTR [70h], 50h
0000045B C7 44 24 74 03 00 00 00                      MOV DWORD PTR [74h], 3h
00000463 48 8D 05 9B FF FF FF                         LEA RAX,  [RIP-65h]
0000046A 48 89 44 24 78                               MOV QWORD PTR [78h], RAX
0000046F C7 84 24 80 00 00 00 00 00 00 00             MOV DWORD PTR [80h], 0h
0000047A C7 84 24 84 00 00 00 00 00 00 00             MOV DWORD PTR [84h], 0h
00000485 48 8B 84 24 30 01 00 00                      MOV RAX, QWORD PTR [130h]
0000048D 48 89 84 24 88 00 00 00                      MOV QWORD PTR [88h], RAX
00000495 BA 00 7F 00 00                               MOV EDX, 7f00h
0000049A 33 C9                                        XOR ECX, ECX
0000049C FF 15 86 B2 00 00                            CALL QWORD PTR [RIP+b286h]
000004A2 48 89 84 24 90 00 00 00                      MOV QWORD PTR [90h], RAX
000004AA BA 00 7F 00 00                               MOV EDX, 7f00h
000004AF 33 C9                                        XOR ECX, ECX
000004B1 FF 15 79 B2 00 00                            CALL QWORD PTR [RIP+b279h]
000004B7 48 89 84 24 98 00 00 00                      MOV QWORD PTR [98h], RAX
000004BF 33 C9                                        XOR ECX, ECX
000004C1 FF 15 39 AF 00 00                            CALL QWORD PTR [RIP+af39h]
000004C7 48 89 84 24 A0 00 00 00                      MOV QWORD PTR [a0h], RAX
000004CF 48 C7 84 24 A8 00 00 00 00 00 00 00          MOV QWORD PTR [a8h], 0h
000004DB 48 C7 84 24 B8 00 00 00 00 00 00 00          MOV QWORD PTR [b8h], 0h
000004E7 48 8D 05 12 8F 00 00                         LEA RAX,  [RIP+8f12h]
000004EE 48 89 84 24 B0 00 00 00                      MOV QWORD PTR [b0h], RAX
000004F6 48 8D 4C 24 70                               LEA RCX,  [70h]
000004FB FF 15 77 B2 00 00                            CALL QWORD PTR [RIP+b277h]
00000501 0F B7 C0                                     MOVZX EAX, AX
00000504 85 C0                                        TEST EAX, EAX
00000506 75 23                                        JNZ 52bh
00000508 41 B9 10 00 00 00                            MOV R9D, 10h
0000050E 4C 8D 05 EB 8E 00 00                         LEA R8,  [RIP+8eebh]
00000515 48 8D 15 A4 67 00 00                         LEA RDX,  [RIP+67a4h]
0000051C 33 C9                                        XOR ECX, ECX
0000051E FF 15 14 B2 00 00                            CALL QWORD PTR [RIP+b214h]
00000524 33 C0                                        XOR EAX, EAX
00000526 E9 F9 00 00 00                               JMP 624h
0000052B 48 C7 44 24 58 00 00 00 00                   MOV QWORD PTR [58h], 0h
00000534 48 8B 84 24 30 01 00 00                      MOV RAX, QWORD PTR [130h]
0000053C 48 89 44 24 50                               MOV QWORD PTR [50h], RAX
00000541 48 C7 44 24 48 00 00 00 00                   MOV QWORD PTR [48h], 0h
0000054A 48 C7 44 24 40 00 00 00 00                   MOV QWORD PTR [40h], 0h
00000553 C7 44 24 38 96 00 00 00                      MOV DWORD PTR [38h], 96h
0000055B C7 44 24 30 90 01 00 00                      MOV DWORD PTR [30h], 190h
00000563 C7 44 24 28 00 00 00 80                      MOV DWORD PTR [28h], 80000000h
0000056B C7 44 24 20 00 00 00 80                      MOV DWORD PTR [20h], 80000000h
00000573 41 B9 00 00 CF 00                            MOV R9D, cf0000h
00000579 4C 8D 05 88 67 00 00                         LEA R8,  [RIP+6788h]
00000580 48 8D 15 79 8E 00 00                         LEA RDX,  [RIP+8e79h]
00000587 33 C9                                        XOR ECX, ECX
00000589 FF 15 E1 B1 00 00                            CALL QWORD PTR [RIP+b1e1h]
0000058F 48 89 84 24 C8 00 00 00                      MOV QWORD PTR [c8h], RAX
00000597 48 83 BC 24 C8 00 00 00 00                   CMP QWORD PTR [c8h], 0h
000005A0 75 20                                        JNZ 5c2h
000005A2 41 B9 10 00 00 00                            MOV R9D, 10h
000005A8 4C 8D 05 51 8E 00 00                         LEA R8,  [RIP+8e51h]
000005AF 48 8D 15 7A 67 00 00                         LEA RDX,  [RIP+677ah]
000005B6 33 C9                                        XOR ECX, ECX
000005B8 FF 15 7A B1 00 00                            CALL QWORD PTR [RIP+b17ah]
000005BE 33 C0                                        XOR EAX, EAX
000005C0 EB 62                                        JMP 624h
000005C2 8B 94 24 48 01 00 00                         MOV EDX, DWORD PTR [148h]
000005C9 48 8B 8C 24 C8 00 00 00                      MOV RCX, QWORD PTR [c8h]
000005D1 FF 15 91 B1 00 00                            CALL QWORD PTR [RIP+b191h]
000005D7 48 8B 8C 24 C8 00 00 00                      MOV RCX, QWORD PTR [c8h]
000005DF FF 15 73 B1 00 00                            CALL QWORD PTR [RIP+b173h]
000005E5 45 33 C9                                     XOR R9D, R9D
000005E8 45 33 C0                                     XOR R8D, R8D
000005EB 33 D2                                        XOR EDX, EDX
000005ED 48 8D 8C 24 D8 00 00 00                      LEA RCX,  [d8h]
000005F5 FF 15 A5 B1 00 00                            CALL QWORD PTR [RIP+b1a5h]
000005FB 85 C0                                        TEST EAX, EAX
000005FD 74 1E                                        JZ 61dh
000005FF 48 8D 8C 24 D8 00 00 00                      LEA RCX,  [d8h]
00000607 FF 15 8B B1 00 00                            CALL QWORD PTR [RIP+b18bh]
0000060D 48 8D 8C 24 D8 00 00 00                      LEA RCX,  [d8h]
00000615 FF 15 75 B1 00 00                            CALL QWORD PTR [RIP+b175h]
0000061B EB C8                                        JMP 5e5h
0000061D 8B 84 24 E8 00 00 00                         MOV EAX, DWORD PTR [e8h]
00000624 48 8B F8                                     MOV RDI, RAX
00000627 48 8B CC                                     MOV RCX, RSP
0000062A 48 8D 15 CF 67 00 00                         LEA RDX,  [RIP+67cfh]
00000631 E8 FA 02 00 00                               CALL 930h
00000636 48 8B C7                                     MOV RAX, RDI
00000639 48 81 C4 20 01 00 00                         ADD RSP, 120h
00000640 5F                                           POP RDI
00000641 C3                                           RET 
00000642 CC                                           INT 3 
00000643 CC                                           INT 3 
00000644 CC                                           INT 3 
00000645 CC                                           INT 3 
00000646 CC                                           INT 3 
00000647 CC                                           INT 3 
00000648 CC                                           INT 3 
00000649 CC                                           INT 3 
0000064A CC                                           INT 3 
0000064B CC                                           INT 3 
0000064C CC                                           INT 3 
0000064D CC                                           INT 3 
0000064E CC                                           INT 3 
0000064F CC                                           INT 3 
00000650 4C 89 4C 24 20                               MOV QWORD PTR [20h], R9
00000655 4C 89 44 24 18                               MOV QWORD PTR [18h], R8
0000065A 89 54 24 10                                  MOV DWORD PTR [10h], EDX
0000065E 48 89 4C 24 08                               MOV QWORD PTR [8h], RCX
00000663 57                                           PUSH RDI
00000664 48 81 EC F0 00 00 00                         SUB RSP, f0h
0000066B 48 8B FC                                     MOV RDI, RSP
0000066E B9 3C 00 00 00                               MOV ECX, 3ch
00000673 B8 CC CC CC CC                               MOV EAX, cccccccch
00000678 F3 AB                                        REP STOSD 
0000067A 48 8B 8C 24 00 01 00 00                      MOV RCX, QWORD PTR [100h]
00000682 48 8B 05 17 8E 00 00                         MOV RAX, QWORD PTR [RIP+8e17h]
00000689 48 33 C4                                     XOR RAX, RSP
0000068C 48 89 84 24 E0 00 00 00                      MOV QWORD PTR [e0h], RAX
00000694 8B 84 24 08 01 00 00                         MOV EAX, DWORD PTR [108h]
0000069B 89 84 24 D8 00 00 00                         MOV DWORD PTR [d8h], EAX
000006A2 83 BC 24 D8 00 00 00 02                      CMP DWORD PTR [d8h], 2h
000006AA 0F 84 8C 00 00 00                            JZ 73ch
000006B0 83 BC 24 D8 00 00 00 0F                      CMP DWORD PTR [d8h], fh
000006B8 74 05                                        JZ 6bfh
000006BA E9 89 00 00 00                               JMP 748h
000006BF 48 8D 54 24 40                               LEA RDX,  [40h]
000006C4 48 8B 8C 24 00 01 00 00                      MOV RCX, QWORD PTR [100h]
000006CC FF 15 7E B0 00 00                            CALL QWORD PTR [RIP+b07eh]
000006D2 48 89 84 24 C8 00 00 00                      MOV QWORD PTR [c8h], RAX
000006DA 48 8D 94 24 A8 00 00 00                      LEA RDX,  [a8h]
000006E2 48 8B 8C 24 00 01 00 00                      MOV RCX, QWORD PTR [100h]
000006EA FF 15 50 B0 00 00                            CALL QWORD PTR [RIP+b050h]
000006F0 48 8D 0D 39 8D 00 00                         LEA RCX,  [RIP+8d39h]
000006F7 FF 15 8B AF 00 00                            CALL QWORD PTR [RIP+af8bh]
000006FD C7 44 24 20 25 00 00 00                      MOV DWORD PTR [20h], 25h
00000705 4C 8D 8C 24 A8 00 00 00                      LEA R9,  [a8h]
0000070D 44 8B C0                                     MOV R8D, EAX
00000710 48 8D 15 19 8D 00 00                         LEA RDX,  [RIP+8d19h]
00000717 48 8B 8C 24 C8 00 00 00                      MOV RCX, QWORD PTR [c8h]
0000071F FF 15 3B B0 00 00                            CALL QWORD PTR [RIP+b03bh]
00000725 48 8D 54 24 40                               LEA RDX,  [40h]
0000072A 48 8B 8C 24 00 01 00 00                      MOV RCX, QWORD PTR [100h]
00000732 FF 15 10 B0 00 00                            CALL QWORD PTR [RIP+b010h]
00000738 33 C0                                        XOR EAX, EAX
0000073A EB 31                                        JMP 76dh
0000073C 33 C9                                        XOR ECX, ECX
0000073E FF 15 3C B0 00 00                            CALL QWORD PTR [RIP+b03ch]
00000744 33 C0                                        XOR EAX, EAX
00000746 EB 25                                        JMP 76dh
00000748 4C 8B 8C 24 18 01 00 00                      MOV R9, QWORD PTR [118h]
00000750 4C 8B 84 24 10 01 00 00                      MOV R8, QWORD PTR [110h]
00000758 8B 94 24 08 01 00 00                         MOV EDX, DWORD PTR [108h]
0000075F 48 8B 8C 24 00 01 00 00                      MOV RCX, QWORD PTR [100h]
00000767 FF 15 1B B0 00 00                            CALL QWORD PTR [RIP+b01bh]
0000076D 48 8B F8                                     MOV RDI, RAX
00000770 48 8B CC                                     MOV RCX, RSP
00000773 48 8D 15 9E 66 00 00                         LEA RDX,  [RIP+669eh]
0000077A E8 B1 01 00 00                               CALL 930h
0000077F 48 8B C7                                     MOV RAX, RDI
00000782 48 8B 8C 24 E0 00 00 00                      MOV RCX, QWORD PTR [e0h]
0000078A 48 33 CC                                     XOR RCX, RSP
0000078D E8 FE 04 00 00                               CALL c90h
00000792 48 81 C4 F0 00 00 00                         ADD RSP, f0h
00000799 5F                                           POP RDI
0000079A C3                                           RET 
0000079B CC                                           INT 3 
0000079C CC                                           INT 3 
0000079D CC                                           INT 3 
0000079E CC                                           INT 3 
0000079F CC                                           INT 3 
000007A0 CC                                           INT 3 
000007A1 CC                                           INT 3 
000007A2 CC                                           INT 3 
000007A3 CC                                           INT 3 
000007A4 CC                                           INT 3 
000007A5 CC                                           INT 3 
000007A6 CC                                           INT 3 
000007A7 CC                                           INT 3 
000007A8 CC                                           INT 3 
000007A9 CC                                           INT 3 
000007AA CC                                           INT 3 
000007AB CC                                           INT 3 
000007AC CC                                           INT 3 
000007AD CC                                           INT 3 
000007AE CC                                           INT 3 
000007AF CC                                           INT 3 
000007B0 CC                                           INT 3 
000007B1 CC                                           INT 3 
000007B2 CC                                           INT 3 
000007B3 CC                                           INT 3 
000007B4 CC                                           INT 3 
000007B5 CC                                           INT 3 
000007B6 CC                                           INT 3 
000007B7 CC                                           INT 3 
000007B8 CC                                           INT 3 
000007B9 CC                                           INT 3 
000007BA CC                                           INT 3 
000007BB CC                                           INT 3 
000007BC CC                                           INT 3 
000007BD CC                                           INT 3 
000007BE CC                                           INT 3 
000007BF CC                                           INT 3 
000007C0 CC                                           INT 3 
000007C1 CC                                           INT 3 
000007C2 CC                                           INT 3 
000007C3 CC                                           INT 3 
000007C4 CC                                           INT 3 
000007C5 CC                                           INT 3 
000007C6 CC                                           INT 3 
000007C7 CC                                           INT 3 
000007C8 CC                                           INT 3 
000007C9 CC                                           INT 3 
000007CA CC                                           INT 3 
000007CB CC                                           INT 3 
000007CC CC                                           INT 3 
000007CD CC                                           INT 3 
000007CE CC                                           INT 3 
000007CF CC                                           INT 3 
000007D0 CC                                           INT 3 
000007D1 CC                                           INT 3 
000007D2 CC                                           INT 3 
000007D3 CC                                           INT 3 
000007D4 CC                                           INT 3 
000007D5 CC                                           INT 3 
000007D6 CC                                           INT 3 
000007D7 CC                                           INT 3 
000007D8 CC                                           INT 3 
000007D9 CC                                           INT 3 
000007DA CC                                           INT 3 
000007DB CC                                           INT 3 
000007DC CC                                           INT 3 
000007DD CC                                           INT 3 
000007DE CC                                           INT 3 
000007DF CC                                           INT 3 
000007E0 CC                                           INT 3 
000007E1 CC                                           INT 3 
000007E2 CC                                           INT 3 
000007E3 CC                                           INT 3 
000007E4 CC                                           INT 3 
000007E5 CC                                           INT 3 
000007E6 CC                                           INT 3 
000007E7 CC                                           INT 3 
000007E8 CC                                           INT 3 
000007E9 CC                                           INT 3 
000007EA CC                                           INT 3 
000007EB CC                                           INT 3 
000007EC CC                                           INT 3 
000007ED CC                                           INT 3 
000007EE CC                                           INT 3 
000007EF CC                                           INT 3 
000007F0 CC                                           INT 3 
000007F1 CC                                           INT 3 
000007F2 CC                                           INT 3 
000007F3 CC                                           INT 3 
000007F4 CC                                           INT 3 
000007F5 CC                                           INT 3 
000007F6 CC                                           INT 3 
000007F7 CC                                           INT 3 
000007F8 CC                                           INT 3 
000007F9 CC                                           INT 3 
000007FA CC                                           INT 3 
000007FB CC                                           INT 3 
000007FC CC                                           INT 3 
000007FD CC                                           INT 3 
000007FE CC                                           INT 3 
000007FF CC                                           INT 3 
00000800 CC                                           INT 3 
00000801 CC                                           INT 3 
00000802 CC                                           INT 3 
00000803 CC                                           INT 3 
00000804 CC                                           INT 3 
00000805 CC                                           INT 3 
00000806 CC                                           INT 3 
00000807 CC                                           INT 3 
00000808 CC                                           INT 3 
00000809 CC                                           INT 3 
0000080A CC                                           INT 3 
0000080B CC                                           INT 3 
0000080C CC                                           INT 3 
0000080D CC                                           INT 3 
0000080E CC                                           INT 3 
0000080F CC                                           INT 3 
00000810 CC                                           INT 3 
00000811 CC                                           INT 3 
00000812 CC                                           INT 3 
00000813 CC                                           INT 3 
00000814 CC                                           INT 3 
00000815 CC                                           INT 3 
00000816 CC                                           INT 3 
00000817 CC                                           INT 3 
00000818 CC                                           INT 3 
00000819 CC                                           INT 3 
0000081A CC                                           INT 3 
0000081B CC                                           INT 3 
0000081C CC                                           INT 3 
0000081D CC                                           INT 3 
0000081E CC                                           INT 3 
0000081F CC                                           INT 3 
00000820 CC                                           INT 3 
00000821 CC                                           INT 3 
00000822 CC                                           INT 3 
00000823 CC                                           INT 3 
00000824 CC                                           INT 3 
00000825 CC                                           INT 3 
00000826 CC                                           INT 3 
00000827 CC                                           INT 3 
00000828 CC                                           INT 3 
00000829 CC                                           INT 3 
0000082A CC                                           INT 3 
0000082B CC                                           INT 3 
0000082C CC                                           INT 3 
0000082D CC                                           INT 3 
0000082E CC                                           INT 3 
0000082F CC                                           INT 3 
00000830 CC                                           INT 3 
00000831 CC                                           INT 3 
00000832 CC                                           INT 3 
00000833 CC                                           INT 3 
00000834 CC                                           INT 3 
00000835 CC                                           INT 3 
00000836 CC                                           INT 3 
00000837 CC                                           INT 3 
00000838 CC                                           INT 3 
00000839 CC                                           INT 3 
0000083A CC                                           INT 3 
0000083B CC                                           INT 3 
0000083C CC                                           INT 3 
0000083D CC                                           INT 3 
0000083E CC                                           INT 3 
0000083F CC                                           INT 3 
00000840 CC                                           INT 3 
00000841 CC                                           INT 3 
00000842 CC                                           INT 3 
00000843 CC                                           INT 3 
00000844 CC                                           INT 3 
00000845 CC                                           INT 3 
00000846 CC                                           INT 3 
00000847 CC                                           INT 3 
00000848 CC                                           INT 3 
00000849 CC                                           INT 3 
0000084A CC                                           INT 3 
0000084B CC                                           INT 3 
0000084C CC                                           INT 3 
0000084D CC                                           INT 3 
0000084E CC                                           INT 3 
0000084F CC                                           INT 3 
00000850 CC                                           INT 3 
00000851 CC                                           INT 3 
00000852 CC                                           INT 3 
00000853 CC                                           INT 3 
00000854 CC                                           INT 3 
00000855 CC                                           INT 3 
00000856 CC                                           INT 3 
00000857 CC                                           INT 3 
00000858 CC                                           INT 3 
00000859 CC                                           INT 3 
0000085A CC                                           INT 3 
0000085B CC                                           INT 3 
0000085C CC                                           INT 3 
0000085D CC                                           INT 3 
0000085E CC                                           INT 3 
0000085F CC                                           INT 3 
00000860 CC                                           INT 3 
00000861 CC                                           INT 3 
00000862 CC                                           INT 3 
00000863 CC                                           INT 3 
00000864 CC                                           INT 3 
00000865 CC                                           INT 3 
00000866 CC                                           INT 3 
00000867 CC                                           INT 3 
00000868 CC                                           INT 3 
00000869 CC                                           INT 3 
0000086A CC                                           INT 3 
0000086B CC                                           INT 3 
0000086C CC                                           INT 3 
0000086D CC                                           INT 3 
0000086E CC                                           INT 3 
0000086F CC                                           INT 3 
00000870 CC                                           INT 3 
00000871 CC                                           INT 3 
00000872 CC                                           INT 3 
00000873 CC                                           INT 3 
00000874 CC                                           INT 3 
00000875 CC                                           INT 3 
00000876 CC                                           INT 3 
00000877 CC                                           INT 3 
00000878 CC                                           INT 3 
00000879 CC                                           INT 3 
0000087A FF 25 20 AF 00 00                            JMP QWORD PTR [RIP+af20h]
00000880 FF 25 12 AF 00 00                            JMP QWORD PTR [RIP+af12h]
00000886 FF 25 04 AF 00 00                            JMP QWORD PTR [RIP+af04h]
0000088C FF 25 F6 AE 00 00                            JMP QWORD PTR [RIP+aef6h]
00000892 FF 25 E8 AE 00 00                            JMP QWORD PTR [RIP+aee8h]
00000898 FF 25 DA AE 00 00                            JMP QWORD PTR [RIP+aedah]
0000089E FF 25 CC AE 00 00                            JMP QWORD PTR [RIP+aecch]
000008A4 FF 25 BE AE 00 00                            JMP QWORD PTR [RIP+aebeh]
000008AA FF 25 B0 AE 00 00                            JMP QWORD PTR [RIP+aeb0h]
000008B0 FF 25 A2 AE 00 00                            JMP QWORD PTR [RIP+aea2h]
000008B6 FF 25 94 AE 00 00                            JMP QWORD PTR [RIP+ae94h]
000008BC FF 25 86 AE 00 00                            JMP QWORD PTR [RIP+ae86h]
000008C2 FF 25 78 AE 00 00                            JMP QWORD PTR [RIP+ae78h]
000008C8 FF 25 6A AE 00 00                            JMP QWORD PTR [RIP+ae6ah]
000008CE FF 25 5C AE 00 00                            JMP QWORD PTR [RIP+ae5ch]
000008D4 FF 25 4E AE 00 00                            JMP QWORD PTR [RIP+ae4eh]
000008DA FF 25 20 AB 00 00                            JMP QWORD PTR [RIP+ab20h]
000008E0 FF 25 A2 AD 00 00                            JMP QWORD PTR [RIP+ada2h]
000008E6 CC                                           INT 3 
000008E7 CC                                           INT 3 
000008E8 CC                                           INT 3 
000008E9 CC                                           INT 3 
000008EA CC                                           INT 3 
000008EB CC                                           INT 3 
000008EC CC                                           INT 3 
000008ED CC                                           INT 3 
000008EE CC                                           INT 3 
000008EF CC                                           INT 3 
000008F0 48 83 EC 08                                  SUB RSP, 8h
000008F4 4C 8B C9                                     MOV R9, RCX
000008F7 48 85 C9                                     TEST RCX, RCX
000008FA 74 2A                                        JZ 926h
000008FC 48 85 D2                                     TEST RDX, RDX
000008FF 74 25                                        JZ 926h
00000901 4D 85 C0                                     TEST R8, R8
00000904 74 20                                        JZ 926h
00000906 48 89 3C 24                                  MOV QWORD PTR [0h], RDI
0000090A 48 8B F9                                     MOV RDI, RCX
0000090D B0 CC                                        MOV AL, cch
0000090F 48 8B CA                                     MOV RCX, RDX
00000912 F3 AA                                        REP STOSB 
00000914 49 8B 00                                     MOV RAX, QWORD PTR [R8]
00000917 48 8B 3C 24                                  MOV RDI, QWORD PTR [0h]
0000091B 49 89 41 04                                  MOV QWORD PTR [R9+4h], RAX
0000091F 49 89 51 0C                                  MOV QWORD PTR [R9+ch], RDX
00000923 4D 89 08                                     MOV QWORD PTR [R8], R9
00000926 48 83 C4 08                                  ADD RSP, 8h
0000092A C3                                           RET 
0000092B CC                                           INT 3 
0000092C CC                                           INT 3 
0000092D CC                                           INT 3 
0000092E CC                                           INT 3 
0000092F CC                                           INT 3 
00000930 48 89 5C 24 10                               MOV QWORD PTR [10h], RBX
00000935 48 89 6C 24 18                               MOV QWORD PTR [18h], RBP
0000093A 56                                           PUSH RSI
0000093B 48 83 EC 20                                  SUB RSP, 20h
0000093F 33 DB                                        XOR EBX, EBX
00000941 48 8B F2                                     MOV RSI, RDX
00000944 48 8B E9                                     MOV RBP, RCX
00000947 39 1A                                        CMP DWORD PTR [RDX], EBX
00000949 7E 56                                        JLE 9a1h
0000094B 48 89 7C 24 30                               MOV QWORD PTR [30h], RDI
00000950 8B FB                                        MOV EDI, EBX
00000952 0F 1F 40 00                                  NOP DWORD PTR [RAX+0h]
00000956 66 66 0F 1F 84 00 00 00 00 00                NOP WORD PTR [RAX+RAX+0h]
00000960 48 8B 56 08                                  MOV RDX, QWORD PTR [RSI+8h]
00000964 48 63 0C 3A                                  MOVSXD RCX, DWORD PTR [RDX+RDI]
00000968 81 7C 29 FC CC CC CC CC                      CMP DWORD PTR [RCX+RBP-4h], cccccccch
00000970 75 11                                        JNZ 983h
00000972 48 63 44 3A 04                               MOVSXD RAX, DWORD PTR [RDX+RDI+4h]
00000977 48 03 C1                                     ADD RAX, RCX
0000097A 81 3C 28 CC CC CC CC                         CMP DWORD PTR [RAX+RBP], cccccccch
00000981 74 0F                                        JZ 992h
00000983 48 8B 4C 24 28                               MOV RCX, QWORD PTR [28h]
00000988 48 8B 54 3A 08                               MOV RDX, QWORD PTR [RDX+RDI+8h]
0000098D E8 7E 0A 00 00                               CALL 1410h
00000992 FF C3                                        INC EBX
00000994 48 83 C7 10                                  ADD RDI, 10h
00000998 3B 1E                                        CMP EBX, DWORD PTR [RSI]
0000099A 7C C4                                        JL 960h
0000099C 48 8B 7C 24 30                               MOV RDI, QWORD PTR [30h]
000009A1 48 8B 5C 24 38                               MOV RBX, QWORD PTR [38h]
000009A6 48 8B 6C 24 40                               MOV RBP, QWORD PTR [40h]
000009AB 48 83 C4 20                                  ADD RSP, 20h
000009AF 5E                                           POP RSI
000009B0 C3                                           RET 
000009B1 CC                                           INT 3 
000009B2 CC                                           INT 3 
000009B3 CC                                           INT 3 
000009B4 CC                                           INT 3 
000009B5 CC                                           INT 3 
000009B6 CC                                           INT 3 
000009B7 CC                                           INT 3 
000009B8 CC                                           INT 3 
000009B9 CC                                           INT 3 
000009BA CC                                           INT 3 
000009BB CC                                           INT 3 
000009BC CC                                           INT 3 
000009BD CC                                           INT 3 
000009BE CC                                           INT 3 
000009BF CC                                           INT 3 
000009C0 40 53                                        PUSH RBX
000009C2 57                                           PUSH RDI
000009C3 48 83 EC 28                                  SUB RSP, 28h
000009C7 48 89 6C 24 40                               MOV QWORD PTR [40h], RBP
000009CC 33 FF                                        XOR EDI, EDI
000009CE 4C 89 7C 24 20                               MOV QWORD PTR [20h], R15
000009D3 4C 8B F9                                     MOV R15, RCX
000009D6 49 8B D8                                     MOV RBX, R8
000009D9 48 8B EA                                     MOV RBP, RDX
000009DC 48 85 D2                                     TEST RDX, RDX
000009DF 74 5C                                        JZ a3dh
000009E1 48 89 74 24 48                               MOV QWORD PTR [48h], RSI
000009E6 8B F7                                        MOV ESI, EDI
000009E8 39 3A                                        CMP DWORD PTR [RDX], EDI
000009EA 7E 4C                                        JLE a38h
000009EC 4C 89 74 24 50                               MOV QWORD PTR [50h], R14
000009F1 44 8B F7                                     MOV R14D, EDI
000009F4 48 8B 55 08                                  MOV RDX, QWORD PTR [RBP+8h]
000009F8 4A 63 0C 32                                  MOVSXD RCX, DWORD PTR [RDX+R14]
000009FC 42 81 7C 39 FC CC CC CC CC                   CMP DWORD PTR [RCX+R15-4h], cccccccch
00000A05 75 12                                        JNZ a19h
00000A07 4A 63 44 32 04                               MOVSXD RAX, DWORD PTR [RDX+R14+4h]
00000A0C 48 03 C1                                     ADD RAX, RCX
00000A0F 42 81 3C 38 CC CC CC CC                      CMP DWORD PTR [RAX+R15], cccccccch
00000A17 74 0F                                        JZ a28h
00000A19 48 8B 4C 24 38                               MOV RCX, QWORD PTR [38h]
00000A1E 4A 8B 54 32 08                               MOV RDX, QWORD PTR [RDX+R14+8h]
00000A23 E8 E8 09 00 00                               CALL 1410h
00000A28 FF C6                                        INC ESI
00000A2A 49 83 C6 10                                  ADD R14, 10h
00000A2E 3B 75 00                                     CMP ESI, DWORD PTR [RBP+0h]
00000A31 7C C1                                        JL 9f4h
00000A33 4C 8B 74 24 50                               MOV R14, QWORD PTR [50h]
00000A38 48 8B 74 24 48                               MOV RSI, QWORD PTR [48h]
00000A3D 4C 8B 7C 24 20                               MOV R15, QWORD PTR [20h]
00000A42 48 8B 6C 24 40                               MOV RBP, QWORD PTR [40h]
00000A47 48 8B C3                                     MOV RAX, RBX
00000A4A 48 85 DB                                     TEST RBX, RBX
00000A4D 74 6D                                        JZ abch
00000A4F 90                                           NOP 
00000A50 48 8B 40 04                                  MOV RAX, QWORD PTR [RAX+4h]
00000A54 FF C7                                        INC EDI
00000A56 48 85 C0                                     TEST RAX, RAX
00000A59 75 F5                                        JNZ a50h
00000A5B 48 85 DB                                     TEST RBX, RBX
00000A5E 74 5C                                        JZ abch
00000A60 81 3B CC CC CC CC                            CMP DWORD PTR [RBX], cccccccch
00000A66 75 1B                                        JNZ a83h
00000A68 81 7B 14 CC CC CC CC                         CMP DWORD PTR [RBX+14h], cccccccch
00000A6F 75 12                                        JNZ a83h
00000A71 81 7B 18 CC CC CC CC                         CMP DWORD PTR [RBX+18h], cccccccch
00000A78 75 09                                        JNZ a83h
00000A7A 81 7B 1C CC CC CC CC                         CMP DWORD PTR [RBX+1ch], cccccccch
00000A81 74 10                                        JZ a93h
00000A83 48 8B 4C 24 38                               MOV RCX, QWORD PTR [38h]
00000A88 44 8B C7                                     MOV R8D, EDI
00000A8B 48 8B D3                                     MOV RDX, RBX
00000A8E E8 6D 07 00 00                               CALL 1200h
00000A93 48 8B 43 0C                                  MOV RAX, QWORD PTR [RBX+ch]
00000A97 81 7C 18 FC CC CC CC CC                      CMP DWORD PTR [RAX+RBX-4h], cccccccch
00000A9F 74 10                                        JZ ab1h
00000AA1 48 8B 4C 24 38                               MOV RCX, QWORD PTR [38h]
00000AA6 44 8B C7                                     MOV R8D, EDI
00000AA9 48 8B D3                                     MOV RDX, RBX
00000AAC E8 4F 07 00 00                               CALL 1200h
00000AB1 48 8B 5B 04                                  MOV RBX, QWORD PTR [RBX+4h]
00000AB5 FF CF                                        DEC EDI
00000AB7 48 85 DB                                     TEST RBX, RBX
00000ABA 75 A4                                        JNZ a60h
00000ABC 48 83 C4 28                                  ADD RSP, 28h
00000AC0 5F                                           POP RDI
00000AC1 5B                                           POP RBX
00000AC2 C3                                           RET 
00000AC3 CC                                           INT 3 
00000AC4 CC                                           INT 3 
00000AC5 CC                                           INT 3 
00000AC6 CC                                           INT 3 
00000AC7 CC                                           INT 3 
00000AC8 CC                                           INT 3 
00000AC9 CC                                           INT 3 
00000ACA CC                                           INT 3 
00000ACB CC                                           INT 3 
00000ACC CC                                           INT 3 
00000ACD CC                                           INT 3 
00000ACE CC                                           INT 3 
00000ACF CC                                           INT 3 
00000AD0 48 83 EC 38                                  SUB RSP, 38h
00000AD4 80 3D 05 8B 00 00 00                         CMP BYTE PTR [RIP+8b05h], 0h
00000ADB 75 2D                                        JNZ b0ah
00000ADD 41 B9 01 00 00 00                            MOV R9D, 1h
00000AE3 45 33 C0                                     XOR R8D, R8D
00000AE6 33 D2                                        XOR EDX, EDX
00000AE8 33 C9                                        XOR ECX, ECX
00000AEA C6 05 EF 8A 00 00 01                         MOV BYTE PTR [RIP+8aefh], 1h
00000AF1 C7 44 24 20 00 00 00 00                      MOV DWORD PTR [20h], 0h
00000AF9 E8 40 0F 00 00                               CALL 1a3eh
00000AFE 48 8B C8                                     MOV RCX, RAX
00000B01 48 83 C4 38                                  ADD RSP, 38h
00000B05 E9 F6 0E 00 00                               JMP 1a00h
00000B0A 48 83 C4 38                                  ADD RSP, 38h
00000B0E C3                                           RET 
00000B0F CC                                           INT 3 
00000B10 48 83 EC 38                                  SUB RSP, 38h
00000B14 41 B9 01 00 00 00                            MOV R9D, 1h
00000B1A 45 33 C0                                     XOR R8D, R8D
00000B1D 33 D2                                        XOR EDX, EDX
00000B1F 33 C9                                        XOR ECX, ECX
00000B21 C7 44 24 20 01 00 00 00                      MOV DWORD PTR [20h], 1h
00000B29 E8 10 0F 00 00                               CALL 1a3eh
00000B2E 48 83 C4 38                                  ADD RSP, 38h
00000B32 C3                                           RET 
00000B33 CC                                           INT 3 
00000B34 CC                                           INT 3 
00000B35 CC                                           INT 3 
00000B36 CC                                           INT 3 
00000B37 CC                                           INT 3 
00000B38 CC                                           INT 3 
00000B39 CC                                           INT 3 
00000B3A CC                                           INT 3 
00000B3B CC                                           INT 3 
00000B3C CC                                           INT 3 
00000B3D CC                                           INT 3 
00000B3E CC                                           INT 3 
00000B3F CC                                           INT 3 
00000B40 4C 89 4C 24 20                               MOV QWORD PTR [20h], R9
00000B45 4C 89 44 24 18                               MOV QWORD PTR [18h], R8
00000B4A 48 89 54 24 10                               MOV QWORD PTR [10h], RDX
00000B4F 48 89 4C 24 08                               MOV QWORD PTR [8h], RCX
00000B54 48 83 EC 28                                  SUB RSP, 28h
00000B58 48 8B 44 24 48                               MOV RAX, QWORD PTR [48h]
00000B5D 4C 8B 40 38                                  MOV R8, QWORD PTR [RAX+38h]
00000B61 48 8B 54 24 48                               MOV RDX, QWORD PTR [48h]
00000B66 48 8B 4C 24 38                               MOV RCX, QWORD PTR [38h]
00000B6B E8 10 00 00 00                               CALL b80h
00000B70 B8 01 00 00 00                               MOV EAX, 1h
00000B75 48 83 C4 28                                  ADD RSP, 28h
00000B79 C3                                           RET 
00000B7A CC                                           INT 3 
00000B7B CC                                           INT 3 
00000B7C CC                                           INT 3 
00000B7D CC                                           INT 3 
00000B7E CC                                           INT 3 
00000B7F CC                                           INT 3 
00000B80 4C 89 44 24 18                               MOV QWORD PTR [18h], R8
00000B85 48 89 54 24 10                               MOV QWORD PTR [10h], RDX
00000B8A 48 89 4C 24 08                               MOV QWORD PTR [8h], RCX
00000B8F 48 83 EC 58                                  SUB RSP, 58h
00000B93 48 8B 44 24 70                               MOV RAX, QWORD PTR [70h]
00000B98 8B 00                                        MOV EAX, DWORD PTR [RAX]
00000B9A 83 E0 F8                                     AND EAX, -8h
00000B9D 89 44 24 20                                  MOV DWORD PTR [20h], EAX
00000BA1 48 8B 44 24 60                               MOV RAX, QWORD PTR [60h]
00000BA6 48 89 44 24 38                               MOV QWORD PTR [38h], RAX
00000BAB 48 8B 44 24 70                               MOV RAX, QWORD PTR [70h]
00000BB0 8B 00                                        MOV EAX, DWORD PTR [RAX]
00000BB2 C1 E8 02                                     SHR EAX, 2h
00000BB5 83 E0 01                                     AND EAX, 1h
00000BB8 85 C0                                        TEST EAX, EAX
00000BBA 74 29                                        JZ be5h
00000BBC 48 8B 44 24 70                               MOV RAX, QWORD PTR [70h]
00000BC1 48 63 40 04                                  MOVSXD RAX, DWORD PTR [RAX+4h]
00000BC5 48 8B 4C 24 60                               MOV RCX, QWORD PTR [60h]
00000BCA 48 03 C8                                     ADD RCX, RAX
00000BCD 48 8B C1                                     MOV RAX, RCX
00000BD0 48 8B 4C 24 70                               MOV RCX, QWORD PTR [70h]
00000BD5 8B 49 08                                     MOV ECX, DWORD PTR [RCX+8h]
00000BD8 F7 D9                                        NEG ECX
00000BDA 48 63 C9                                     MOVSXD RCX, ECX
00000BDD 48 23 C1                                     AND RAX, RCX
00000BE0 48 89 44 24 38                               MOV QWORD PTR [38h], RAX
00000BE5 48 63 44 24 20                               MOVSXD RAX, DWORD PTR [20h]
00000BEA 48 8B 4C 24 38                               MOV RCX, QWORD PTR [38h]
00000BEF 48 8B 04 01                                  MOV RAX, QWORD PTR [RCX+RAX]
00000BF3 48 89 44 24 30                               MOV QWORD PTR [30h], RAX
00000BF8 48 8B 44 24 68                               MOV RAX, QWORD PTR [68h]
00000BFD 48 8B 40 10                                  MOV RAX, QWORD PTR [RAX+10h]
00000C01 8B 40 08                                     MOV EAX, DWORD PTR [RAX+8h]
00000C04 48 8B 4C 24 68                               MOV RCX, QWORD PTR [68h]
00000C09 48 03 41 08                                  ADD RAX, QWORD PTR [RCX+8h]
00000C0D 48 89 44 24 40                               MOV QWORD PTR [40h], RAX
00000C12 48 8B 44 24 60                               MOV RAX, QWORD PTR [60h]
00000C17 48 89 44 24 28                               MOV QWORD PTR [28h], RAX
00000C1C 48 8B 44 24 40                               MOV RAX, QWORD PTR [40h]
00000C21 0F B6 40 03                                  MOVZX EAX, BYTE PTR [RAX+3h]
00000C25 24 0F                                        AND AL, fh
00000C27 0F B6 C0                                     MOVZX EAX, AL
00000C2A 85 C0                                        TEST EAX, EAX
00000C2C 74 26                                        JZ c54h
00000C2E 48 8B 44 24 40                               MOV RAX, QWORD PTR [40h]
00000C33 0F B6 40 03                                  MOVZX EAX, BYTE PTR [RAX+3h]
00000C37 C0 E8 04                                     SHR AL, 4h
00000C3A 24 0F                                        AND AL, fh
00000C3C 0F B6 C0                                     MOVZX EAX, AL
00000C3F 6B C0 10                                     IMUL EAX, EAX, 10h
00000C42 48 98                                        CDQE 
00000C44 48 8B 4C 24 28                               MOV RCX, QWORD PTR [28h]
00000C49 48 03 C8                                     ADD RCX, RAX
00000C4C 48 8B C1                                     MOV RAX, RCX
00000C4F 48 89 44 24 28                               MOV QWORD PTR [28h], RAX
00000C54 48 8B 44 24 28                               MOV RAX, QWORD PTR [28h]
00000C59 48 8B 4C 24 30                               MOV RCX, QWORD PTR [30h]
00000C5E 48 33 C8                                     XOR RCX, RAX
00000C61 48 8B C1                                     MOV RAX, RCX
00000C64 48 89 44 24 30                               MOV QWORD PTR [30h], RAX
00000C69 48 8B 4C 24 30                               MOV RCX, QWORD PTR [30h]
00000C6E E8 1D 00 00 00                               CALL c90h
00000C73 48 83 C4 58                                  ADD RSP, 58h
00000C77 C3                                           RET 
00000C78 CC                                           INT 3 
00000C79 CC                                           INT 3 
00000C7A CC                                           INT 3 
00000C7B CC                                           INT 3 
00000C7C CC                                           INT 3 
00000C7D CC                                           INT 3 
00000C7E CC                                           INT 3 
00000C7F CC                                           INT 3 
00000C80 CC                                           INT 3 
00000C81 CC                                           INT 3 
00000C82 CC                                           INT 3 
00000C83 CC                                           INT 3 
00000C84 CC                                           INT 3 
00000C85 CC                                           INT 3 
00000C86 66 66 0F 1F 84 00 00 00 00 00                NOP WORD PTR [RAX+RAX+0h]
00000C90 48 3B 0D 09 88 00 00                         CMP RCX, QWORD PTR [RIP+8809h]
00000C97 75 11                                        JNZ caah
00000C99 48 C1 C1 10                                  ROL RCX, 10h
00000C9D 66 F7 C1 FF FF                               TEST CX, ffffh
00000CA2 75 02                                        JNZ ca6h
00000CA4 F3 C3                                        RET 
00000CA6 48 C1 C9 10                                  ROR RCX, 10h
00000CAA E9 F1 0D 00 00                               JMP 1aa0h
00000CAF CC                                           INT 3 
00000CB0 48 83 EC 28                                  SUB RSP, 28h
00000CB4 E8 D7 03 00 00                               CALL 1090h
00000CB9 89 05 31 89 00 00                            MOV DWORD PTR [RIP+8931h], EAX
00000CBF B9 02 00 00 00                               MOV ECX, 2h
00000CC4 FF 15 BE A8 00 00                            CALL QWORD PTR [RIP+a8beh]
00000CCA 48 C7 C1 FF FF FF FF                         MOV RCX, ffffffffh
00000CD1 FF 15 21 A8 00 00                            CALL QWORD PTR [RIP+a821h]
00000CD7 48 89 05 02 8F 00 00                         MOV QWORD PTR [RIP+8f02h], RAX
00000CDE 48 8B 05 FB 8E 00 00                         MOV RAX, QWORD PTR [RIP+8efbh]
00000CE5 48 89 05 0C 8F 00 00                         MOV QWORD PTR [RIP+8f0ch], RAX
00000CEC 48 8B 05 F5 A8 00 00                         MOV RAX, QWORD PTR [RIP+a8f5h]
00000CF3 8B 0D B7 8E 00 00                            MOV ECX, DWORD PTR [RIP+8eb7h]
00000CF9 89 08                                        MOV DWORD PTR [RAX], ECX
00000CFB 48 8B 05 EE A8 00 00                         MOV RAX, QWORD PTR [RIP+a8eeh]
00000D02 8B 0D 9C 8E 00 00                            MOV ECX, DWORD PTR [RIP+8e9ch]
00000D08 89 08                                        MOV DWORD PTR [RAX], ECX
00000D0A E8 11 16 00 00                               CALL 2320h
00000D0F E8 EC 10 00 00                               CALL 1e00h
00000D14 83 3D A9 87 00 00 00                         CMP DWORD PTR [RIP+87a9h], 0h
00000D1B 75 0D                                        JNZ d2ah
00000D1D 48 8D 0D EC 13 00 00                         LEA RCX,  [RIP+13ech]
00000D24 FF 15 96 A8 00 00                            CALL QWORD PTR [RIP+a896h]
00000D2A 83 3D 97 87 00 00 FF                         CMP DWORD PTR [RIP+8797h], -1h
00000D31 75 0B                                        JNZ d3eh
00000D33 B9 FF FF FF FF                               MOV ECX, ffffffffh
00000D38 FF 15 7A A8 00 00                            CALL QWORD PTR [RIP+a87ah]
00000D3E 33 C0                                        XOR EAX, EAX
00000D40 48 83 C4 28                                  ADD RSP, 28h
00000D44 C3                                           RET 
00000D45 CC                                           INT 3 
00000D46 CC                                           INT 3 
00000D47 CC                                           INT 3 
00000D48 CC                                           INT 3 
00000D49 CC                                           INT 3 
00000D4A CC                                           INT 3 
00000D4B CC                                           INT 3 
00000D4C CC                                           INT 3 
00000D4D CC                                           INT 3 
00000D4E CC                                           INT 3 
00000D4F CC                                           INT 3 
00000D50 48 83 EC 38                                  SUB RSP, 38h
00000D54 48 8D 0D 05 16 00 00                         LEA RCX,  [RIP+1605h]
00000D5B E8 80 15 00 00                               CALL 22e0h
00000D60 8B 05 46 8E 00 00                            MOV EAX, DWORD PTR [RIP+8e46h]
00000D66 89 05 A0 88 00 00                            MOV DWORD PTR [RIP+88a0h], EAX
00000D6C 48 8D 05 99 88 00 00                         LEA RAX,  [RIP+8899h]
00000D73 48 89 44 24 20                               MOV QWORD PTR [20h], RAX
00000D78 44 8B 0D 29 8E 00 00                         MOV R9D, DWORD PTR [RIP+8e29h]
00000D7F 4C 8D 05 7A 88 00 00                         LEA R8,  [RIP+887ah]
00000D86 48 8D 15 6B 88 00 00                         LEA RDX,  [RIP+886bh]
00000D8D 48 8D 0D 60 88 00 00                         LEA RCX,  [RIP+8860h]
00000D94 FF 15 E6 A7 00 00                            CALL QWORD PTR [RIP+a7e6h]
00000D9A 89 05 68 88 00 00                            MOV DWORD PTR [RIP+8868h], EAX
00000DA0 83 3D 61 88 00 00 00                         CMP DWORD PTR [RIP+8861h], 0h
00000DA7 7D 0A                                        JNL db3h
00000DA9 B9 08 00 00 00                               MOV ECX, 8h
00000DAE E8 41 10 00 00                               CALL 1df4h
00000DB3 48 83 C4 38                                  ADD RSP, 38h
00000DB7 C3                                           RET 
00000DB8 CC                                           INT 3 
00000DB9 CC                                           INT 3 
00000DBA CC                                           INT 3 
00000DBB CC                                           INT 3 
00000DBC CC                                           INT 3 
00000DBD CC                                           INT 3 
00000DBE CC                                           INT 3 
00000DBF CC                                           INT 3 
00000DC0 65 48 8B 04 25 30 00 00 00                   MOV RAX, QWORD PTR [GS:30h]
00000DC9 C3                                           RET 
00000DCA CC                                           INT 3 
00000DCB CC                                           INT 3 
00000DCC CC                                           INT 3 
00000DCD CC                                           INT 3 
00000DCE CC                                           INT 3 
00000DCF CC                                           INT 3 
00000DD0 48 83 EC 78                                  SUB RSP, 78h
00000DD4 48 C7 44 24 38 00 00 00 00                   MOV QWORD PTR [38h], 0h
00000DDD 33 C0                                        XOR EAX, EAX
00000DDF 66 89 44 24 30                               MOV WORD PTR [30h], AX
00000DE4 C7 44 24 40 00 00 00 00                      MOV DWORD PTR [40h], 0h
00000DEC FF 15 7E A8 00 00                            CALL QWORD PTR [RIP+a87eh]
00000DF2 66 89 44 24 30                               MOV WORD PTR [30h], AX
00000DF7 48 C7 44 24 50 00 00 00 00                   MOV QWORD PTR [50h], 0h
00000E00 E8 BB FF FF FF                               CALL dc0h
00000E05 48 8B 40 08                                  MOV RAX, QWORD PTR [RAX+8h]
00000E09 48 89 44 24 58                               MOV QWORD PTR [58h], RAX
00000E0E C7 44 24 4C 00 00 00 00                      MOV DWORD PTR [4ch], 0h
00000E16 48 8B 44 24 58                               MOV RAX, QWORD PTR [58h]
00000E1B 48 89 44 24 68                               MOV QWORD PTR [68h], RAX
00000E20 48 8D 0D A1 8D 00 00                         LEA RCX,  [RIP+8da1h]
00000E27 33 C0                                        XOR EAX, EAX
00000E29 48 8B 54 24 68                               MOV RDX, QWORD PTR [68h]
00000E2E F0 48 0F B1 11                               LOCK CMPXCHG QWORD PTR [RCX], RDX
00000E33 48 89 44 24 50                               MOV QWORD PTR [50h], RAX
00000E38 48 83 7C 24 50 00                            CMP QWORD PTR [50h], 0h
00000E3E 74 18                                        JZ e58h
00000E40 48 8B 44 24 58                               MOV RAX, QWORD PTR [58h]
00000E45 48 39 44 24 50                               CMP QWORD PTR [50h], RAX
00000E4A 75 0A                                        JNZ e56h
00000E4C C7 44 24 4C 01 00 00 00                      MOV DWORD PTR [4ch], 1h
00000E54 EB 02                                        JMP e58h
00000E56 EB BE                                        JMP e16h
00000E58 8B 05 7E 8D 00 00                            MOV EAX, DWORD PTR [RIP+8d7eh]
00000E5E 83 F8 01                                     CMP EAX, 1h
00000E61 75 0C                                        JNZ e6fh
00000E63 B9 1F 00 00 00                               MOV ECX, 1fh
00000E68 E8 87 0F 00 00                               CALL 1df4h
00000E6D EB 41                                        JMP eb0h
00000E6F 8B 05 67 8D 00 00                            MOV EAX, DWORD PTR [RIP+8d67h]
00000E75 85 C0                                        TEST EAX, EAX
00000E77 75 2D                                        JNZ ea6h
00000E79 C7 05 59 8D 00 00 01 00 00 00                MOV DWORD PTR [RIP+8d59h], 1h
00000E83 48 8D 15 E6 5C 00 00                         LEA RDX,  [RIP+5ce6h]
00000E8A 48 8D 0D 9F 58 00 00                         LEA RCX,  [RIP+589fh]
00000E91 E8 14 15 00 00                               CALL 23aah
00000E96 85 C0                                        TEST EAX, EAX
00000E98 74 0A                                        JZ ea4h
00000E9A B8 FF 00 00 00                               MOV EAX, ffh
00000E9F E9 D8 01 00 00                               JMP 107ch
00000EA4 EB 0A                                        JMP eb0h
00000EA6 C7 05 38 87 00 00 01 00 00 00                MOV DWORD PTR [RIP+8738h], 1h
00000EB0 8B 05 26 8D 00 00                            MOV EAX, DWORD PTR [RIP+8d26h]
00000EB6 83 F8 01                                     CMP EAX, 1h
00000EB9 75 1D                                        JNZ ed8h
00000EBB 48 8D 15 5E 57 00 00                         LEA RDX,  [RIP+575eh]
00000EC2 48 8D 0D 37 55 00 00                         LEA RCX,  [RIP+5537h]
00000EC9 E8 E2 14 00 00                               CALL 23b0h
00000ECE C7 05 04 8D 00 00 02 00 00 00                MOV DWORD PTR [RIP+8d04h], 2h
00000ED8 8B 05 FE 8C 00 00                            MOV EAX, DWORD PTR [RIP+8cfeh]
00000EDE 83 F8 02                                     CMP EAX, 2h
00000EE1 74 3B                                        JZ f1eh
00000EE3 48 8D 05 36 60 00 00                         LEA RAX,  [RIP+6036h]
00000EEA 48 89 44 24 28                               MOV QWORD PTR [28h], RAX
00000EEF 48 8D 05 7A 60 00 00                         LEA RAX,  [RIP+607ah]
00000EF6 48 89 44 24 20                               MOV QWORD PTR [20h], RAX
00000EFB 45 33 C9                                     XOR R9D, R9D
00000EFE 41 B8 29 02 00 00                            MOV R8D, 229h
00000F04 48 8D 15 75 60 00 00                         LEA RDX,  [RIP+6075h]
00000F0B B9 02 00 00 00                               MOV ECX, 2h
00000F10 FF 15 7A A6 00 00                            CALL QWORD PTR [RIP+a67ah]
00000F16 83 F8 01                                     CMP EAX, 1h
00000F19 75 03                                        JNZ f1eh
00000F1B CC                                           INT 3 
00000F1C 33 C0                                        XOR EAX, EAX
00000F1E 83 7C 24 4C 00                               CMP DWORD PTR [4ch], 0h
00000F23 75 0C                                        JNZ f31h
00000F25 33 C0                                        XOR EAX, EAX
00000F27 48 8D 0D 9A 8C 00 00                         LEA RCX,  [RIP+8c9ah]
00000F2E 48 87 01                                     XCHG QWORD PTR [RCX], RAX
00000F31 48 83 3D C7 8C 00 00 00                      CMP QWORD PTR [RIP+8cc7h], 0h
00000F39 74 20                                        JZ f5bh
00000F3B 48 8D 0D BE 8C 00 00                         LEA RCX,  [RIP+8cbeh]
00000F42 E8 89 0F 00 00                               CALL 1ed0h
00000F47 85 C0                                        TEST EAX, EAX
00000F49 74 10                                        JZ f5bh
00000F4B 45 33 C0                                     XOR R8D, R8D
00000F4E BA 02 00 00 00                               MOV EDX, 2h
00000F53 33 C9                                        XOR ECX, ECX
00000F55 FF 15 A5 8C 00 00                            CALL QWORD PTR [RIP+8ca5h]
00000F5B B9 01 00 00 00                               MOV ECX, 1h
00000F60 FF 15 32 A6 00 00                            CALL QWORD PTR [RIP+a632h]
00000F66 48 8B 05 73 A6 00 00                         MOV RAX, QWORD PTR [RIP+a673h]
00000F6D 48 8B 00                                     MOV RAX, QWORD PTR [RAX]
00000F70 48 89 44 24 38                               MOV QWORD PTR [38h], RAX
00000F75 48 8B 44 24 38                               MOV RAX, QWORD PTR [38h]
00000F7A 0F B7 00                                     MOVZX EAX, WORD PTR [RAX]
00000F7D 83 F8 20                                     CMP EAX, 20h
00000F80 7F 13                                        JNLE f95h
00000F82 48 8B 44 24 38                               MOV RAX, QWORD PTR [38h]
00000F87 0F B7 00                                     MOVZX EAX, WORD PTR [RAX]
00000F8A 85 C0                                        TEST EAX, EAX
00000F8C 74 45                                        JZ fd3h
00000F8E 83 7C 24 40 00                               CMP DWORD PTR [40h], 0h
00000F93 74 3E                                        JZ fd3h
00000F95 48 8B 44 24 38                               MOV RAX, QWORD PTR [38h]
00000F9A 0F B7 00                                     MOVZX EAX, WORD PTR [RAX]
00000F9D 83 F8 22                                     CMP EAX, 22h
00000FA0 75 21                                        JNZ fc3h
00000FA2 83 7C 24 40 00                               CMP DWORD PTR [40h], 0h
00000FA7 75 0A                                        JNZ fb3h
00000FA9 C7 44 24 48 01 00 00 00                      MOV DWORD PTR [48h], 1h
00000FB1 EB 08                                        JMP fbbh
00000FB3 C7 44 24 48 00 00 00 00                      MOV DWORD PTR [48h], 0h
00000FBB 8B 44 24 48                                  MOV EAX, DWORD PTR [48h]
00000FBF 89 44 24 40                                  MOV DWORD PTR [40h], EAX
00000FC3 48 8B 44 24 38                               MOV RAX, QWORD PTR [38h]
00000FC8 48 83 C0 02                                  ADD RAX, 2h
00000FCC 48 89 44 24 38                               MOV QWORD PTR [38h], RAX
00000FD1 EB A2                                        JMP f75h
00000FD3 48 8B 44 24 38                               MOV RAX, QWORD PTR [38h]
00000FD8 0F B7 00                                     MOVZX EAX, WORD PTR [RAX]
00000FDB 85 C0                                        TEST EAX, EAX
00000FDD 74 1D                                        JZ ffch
00000FDF 48 8B 44 24 38                               MOV RAX, QWORD PTR [38h]
00000FE4 0F B7 00                                     MOVZX EAX, WORD PTR [RAX]
00000FE7 83 F8 20                                     CMP EAX, 20h
00000FEA 7F 10                                        JNLE ffch
00000FEC 48 8B 44 24 38                               MOV RAX, QWORD PTR [38h]
00000FF1 48 83 C0 02                                  ADD RAX, 2h
00000FF5 48 89 44 24 38                               MOV QWORD PTR [38h], RAX
00000FFA EB D7                                        JMP fd3h
00000FFC 0F B7 44 24 30                               MOVZX EAX, WORD PTR [30h]
00001001 44 8B C8                                     MOV R9D, EAX
00001004 4C 8B 44 24 38                               MOV R8, QWORD PTR [38h]
00001009 33 D2                                        XOR EDX, EDX
0000100B 48 8D 0D EE E3 FF FF                         LEA RCX,  [RIP-1c12h]
00001012 E8 F3 F3 FF FF                               CALL 40ah
00001017 89 05 CF 85 00 00                            MOV DWORD PTR [RIP+85cfh], EAX
0000101D 83 3D CC 85 00 00 00                         CMP DWORD PTR [RIP+85cch], 0h
00001024 75 0C                                        JNZ 1032h
00001026 8B 0D C0 85 00 00                            MOV ECX, DWORD PTR [RIP+85c0h]
0000102C FF 15 6E A5 00 00                            CALL QWORD PTR [RIP+a56eh]
00001032 83 3D AF 85 00 00 00                         CMP DWORD PTR [RIP+85afh], 0h
00001039 75 06                                        JNZ 1041h
0000103B FF 15 4F A6 00 00                            CALL QWORD PTR [RIP+a64fh]
00001041 EB 33                                        JMP 1076h
00001043 89 44 24 44                                  MOV DWORD PTR [44h], EAX
00001047 8B 44 24 44                                  MOV EAX, DWORD PTR [44h]
0000104B 89 05 9B 85 00 00                            MOV DWORD PTR [RIP+859bh], EAX
00001051 83 3D 98 85 00 00 00                         CMP DWORD PTR [RIP+8598h], 0h
00001058 75 0C                                        JNZ 1066h
0000105A 8B 0D 8C 85 00 00                            MOV ECX, DWORD PTR [RIP+858ch]
00001060 FF 15 42 A5 00 00                            CALL QWORD PTR [RIP+a542h]
00001066 83 3D 7B 85 00 00 00                         CMP DWORD PTR [RIP+857bh], 0h
0000106D 75 07                                        JNZ 1076h
0000106F FF 15 1B A6 00 00                            CALL QWORD PTR [RIP+a61bh]
00001075 90                                           NOP 
00001076 8B 05 70 85 00 00                            MOV EAX, DWORD PTR [RIP+8570h]
0000107C 48 83 C4 78                                  ADD RSP, 78h
00001080 C3                                           RET 
00001081 CC                                           INT 3 
00001082 CC                                           INT 3 
00001083 CC                                           INT 3 
00001084 CC                                           INT 3 
00001085 CC                                           INT 3 
00001086 CC                                           INT 3 
00001087 CC                                           INT 3 
00001088 CC                                           INT 3 
00001089 CC                                           INT 3 
0000108A CC                                           INT 3 
0000108B CC                                           INT 3 
0000108C CC                                           INT 3 
0000108D CC                                           INT 3 
0000108E CC                                           INT 3 
0000108F CC                                           INT 3 
00001090 48 83 EC 28                                  SUB RSP, 28h
00001094 48 8D 05 65 E3 FF FF                         LEA RAX,  [RIP-1c9bh]
0000109B 48 89 44 24 10                               MOV QWORD PTR [10h], RAX
000010A0 48 8B 44 24 10                               MOV RAX, QWORD PTR [10h]
000010A5 0F B7 00                                     MOVZX EAX, WORD PTR [RAX]
000010A8 3D 4D 5A 00 00                               CMP EAX, 5a4dh
000010AD 74 04                                        JZ 10b3h
000010AF 33 C0                                        XOR EAX, EAX
000010B1 EB 7B                                        JMP 112eh
000010B3 48 8B 44 24 10                               MOV RAX, QWORD PTR [10h]
000010B8 48 63 40 3C                                  MOVSXD RAX, DWORD PTR [RAX+3ch]
000010BC 48 8B 4C 24 10                               MOV RCX, QWORD PTR [10h]
000010C1 48 03 C8                                     ADD RCX, RAX
000010C4 48 8B C1                                     MOV RAX, RCX
000010C7 48 89 44 24 08                               MOV QWORD PTR [8h], RAX
000010CC 48 8B 44 24 08                               MOV RAX, QWORD PTR [8h]
000010D1 81 38 50 45 00 00                            CMP DWORD PTR [RAX], 4550h
000010D7 74 04                                        JZ 10ddh
000010D9 33 C0                                        XOR EAX, EAX
000010DB EB 51                                        JMP 112eh
000010DD 48 8B 44 24 08                               MOV RAX, QWORD PTR [8h]
000010E2 0F B7 40 18                                  MOVZX EAX, WORD PTR [RAX+18h]
000010E6 3D 0B 02 00 00                               CMP EAX, 20bh
000010EB 74 04                                        JZ 10f1h
000010ED 33 C0                                        XOR EAX, EAX
000010EF EB 3D                                        JMP 112eh
000010F1 48 8B 44 24 08                               MOV RAX, QWORD PTR [8h]
000010F6 83 B8 84 00 00 00 0E                         CMP DWORD PTR [RAX+84h], eh
000010FD 77 04                                        JNBE 1103h
000010FF 33 C0                                        XOR EAX, EAX
00001101 EB 2B                                        JMP 112eh
00001103 B8 08 00 00 00                               MOV EAX, 8h
00001108 48 6B C0 0E                                  IMUL RAX, RAX, eh
0000110C 48 8B 4C 24 08                               MOV RCX, QWORD PTR [8h]
00001111 83 BC 01 88 00 00 00 00                      CMP DWORD PTR [RCX+RAX+88h], 0h
00001119 74 09                                        JZ 1124h
0000111B C7 04 24 01 00 00 00                         MOV DWORD PTR [0h], 1h
00001122 EB 07                                        JMP 112bh
00001124 C7 04 24 00 00 00 00                         MOV DWORD PTR [0h], 0h
0000112B 8B 04 24                                     MOV EAX, DWORD PTR [0h]
0000112E 48 83 C4 28                                  ADD RSP, 28h
00001132 C3                                           RET 
00001133 CC                                           INT 3 
00001134 CC                                           INT 3 
00001135 CC                                           INT 3 
00001136 CC                                           INT 3 
00001137 CC                                           INT 3 
00001138 CC                                           INT 3 
00001139 CC                                           INT 3 
0000113A CC                                           INT 3 
0000113B CC                                           INT 3 
0000113C CC                                           INT 3 
0000113D CC                                           INT 3 
0000113E CC                                           INT 3 
0000113F CC                                           INT 3 
00001140 48 83 EC 28                                  SUB RSP, 28h
00001144 E8 A7 0E 00 00                               CALL 1ff0h
00001149 E8 82 FC FF FF                               CALL dd0h
0000114E 48 83 C4 28                                  ADD RSP, 28h
00001152 C3                                           RET 
00001153 CC                                           INT 3 
00001154 CC                                           INT 3 
00001155 CC                                           INT 3 
00001156 CC                                           INT 3 
00001157 CC                                           INT 3 
00001158 CC                                           INT 3 
00001159 CC                                           INT 3 
0000115A CC                                           INT 3 
0000115B CC                                           INT 3 
0000115C CC                                           INT 3 
0000115D CC                                           INT 3 
0000115E CC                                           INT 3 
0000115F CC                                           INT 3 
00001160 48 83 EC 58                                  SUB RSP, 58h
00001164 C6 44 24 60 00                               MOV BYTE PTR [60h], 0h
00001169 C7 44 24 20 01 10 00 00                      MOV DWORD PTR [20h], 1001h
00001171 89 4C 24 28                                  MOV DWORD PTR [28h], ECX
00001175 48 8D 44 24 60                               LEA RAX,  [60h]
0000117A 48 89 44 24 30                               MOV QWORD PTR [30h], RAX
0000117F 4C 8D 4C 24 20                               LEA R9,  [20h]
00001184 33 D2                                        XOR EDX, EDX
00001186 44 8D 42 0A                                  LEA R8D,  [RDX+ah]
0000118A B9 88 13 6D 40                               MOV ECX, 406d1388h
0000118F FF 15 53 A3 00 00                            CALL QWORD PTR [RIP+a353h]
00001195 EB 00                                        JMP 1197h
00001197 0F B6 44 24 60                               MOVZX EAX, BYTE PTR [60h]
0000119C 48 83 C4 58                                  ADD RSP, 58h
000011A0 C3                                           RET 
000011A1 CC                                           INT 3 
000011A2 CC                                           INT 3 
000011A3 CC                                           INT 3 
000011A4 CC                                           INT 3 
000011A5 CC                                           INT 3 
000011A6 CC                                           INT 3 
000011A7 CC                                           INT 3 
000011A8 CC                                           INT 3 
000011A9 CC                                           INT 3 
000011AA CC                                           INT 3 
000011AB CC                                           INT 3 
000011AC CC                                           INT 3 
000011AD CC                                           INT 3 
000011AE CC                                           INT 3 
000011AF CC                                           INT 3 
000011B0 48 83 EC 58                                  SUB RSP, 58h
000011B4 C6 44 24 60 00                               MOV BYTE PTR [60h], 0h
000011B9 C7 44 24 20 02 10 00 00                      MOV DWORD PTR [20h], 1002h
000011C1 89 4C 24 28                                  MOV DWORD PTR [28h], ECX
000011C5 89 54 24 2C                                  MOV DWORD PTR [2ch], EDX
000011C9 4C 89 44 24 30                               MOV QWORD PTR [30h], R8
000011CE 48 8D 44 24 60                               LEA RAX,  [60h]
000011D3 48 89 44 24 38                               MOV QWORD PTR [38h], RAX
000011D8 4C 89 4C 24 40                               MOV QWORD PTR [40h], R9
000011DD 4C 8D 4C 24 20                               LEA R9,  [20h]
000011E2 33 D2                                        XOR EDX, EDX
000011E4 44 8D 42 0A                                  LEA R8D,  [RDX+ah]
000011E8 B9 88 13 6D 40                               MOV ECX, 406d1388h
000011ED FF 15 F5 A2 00 00                            CALL QWORD PTR [RIP+a2f5h]
000011F3 EB 00                                        JMP 11f5h
000011F5 0F B6 44 24 60                               MOVZX EAX, BYTE PTR [60h]
000011FA 48 83 C4 58                                  ADD RSP, 58h
000011FE C3                                           RET 
000011FF CC                                           INT 3 
00001200 40 55                                        PUSH RBP
00001202 56                                           PUSH RSI
00001203 57                                           PUSH RDI
00001204 41 56                                        PUSH R14
00001206 48 81 EC C8 01 00 00                         SUB RSP, 1c8h
0000120D 48 8B 05 8C 82 00 00                         MOV RAX, QWORD PTR [RIP+828ch]
00001214 48 33 C4                                     XOR RAX, RSP
00001217 48 89 84 24 B0 01 00 00                      MOV QWORD PTR [1b0h], RAX
0000121F 8B 3D 9B 82 00 00                            MOV EDI, DWORD PTR [RIP+829bh]
00001225 45 8B F0                                     MOV R14D, R8D
00001228 48 8B F2                                     MOV RSI, RDX
0000122B 48 8B E9                                     MOV RBP, RCX
0000122E 83 FF FF                                     CMP EDI, -1h
00001231 0F 84 6C 01 00 00                            JZ 13a3h
00001237 48 8D 0D 42 62 00 00                         LEA RCX,  [RIP+6242h]
0000123E 33 D2                                        XOR EDX, EDX
00001240 41 B8 00 08 00 00                            MOV R8D, 800h
00001246 48 89 9C 24 C0 01 00 00                      MOV QWORD PTR [1c0h], RBX
0000124E FF 15 7C A2 00 00                            CALL QWORD PTR [RIP+a27ch]
00001254 48 8B D8                                     MOV RBX, RAX
00001257 48 85 C0                                     TEST RAX, RAX
0000125A 75 2D                                        JNZ 1289h
0000125C FF 15 7E A2 00 00                            CALL QWORD PTR [RIP+a27eh]
00001262 83 F8 57                                     CMP EAX, 57h
00001265 0F 85 19 01 00 00                            JNZ 1384h
0000126B 48 8D 0D 0E 62 00 00                         LEA RCX,  [RIP+620eh]
00001272 45 33 C0                                     XOR R8D, R8D
00001275 33 D2                                        XOR EDX, EDX
00001277 FF 15 53 A2 00 00                            CALL QWORD PTR [RIP+a253h]
0000127D 48 8B D8                                     MOV RBX, RAX
00001280 48 85 C0                                     TEST RAX, RAX
00001283 0F 84 FB 00 00 00                            JZ 1384h
00001289 48 8D 15 08 62 00 00                         LEA RDX,  [RIP+6208h]
00001290 48 8B CB                                     MOV RCX, RBX
00001293 FF 15 67 A2 00 00                            CALL QWORD PTR [RIP+a267h]
00001299 48 89 05 70 83 00 00                         MOV QWORD PTR [RIP+8370h], RAX
000012A0 48 85 DB                                     TEST RBX, RBX
000012A3 0F 84 DB 00 00 00                            JZ 1384h
000012A9 48 85 F6                                     TEST RSI, RSI
000012AC 0F 84 D2 00 00 00                            JZ 1384h
000012B2 48 85 C0                                     TEST RAX, RAX
000012B5 0F 84 C9 00 00 00                            JZ 1384h
000012BB 48 8B 4E 0C                                  MOV RCX, QWORD PTR [RSI+ch]
000012BF 48 8D 15 3A 62 00 00                         LEA RDX,  [RIP+623ah]
000012C6 48 8D 5E 20                                  LEA RBX,  [RSI+20h]
000012CA 48 89 54 24 48                               MOV QWORD PTR [48h], RDX
000012CF 48 83 E9 24                                  SUB RCX, 24h
000012D3 44 89 74 24 40                               MOV DWORD PTR [40h], R14D
000012D8 48 8D 15 31 62 00 00                         LEA RDX,  [RIP+6231h]
000012DF 4C 8D 0D 62 62 00 00                         LEA R9,  [RIP+6262h]
000012E6 4C 8D 05 73 62 00 00                         LEA R8,  [RIP+6273h]
000012ED 48 89 54 24 38                               MOV QWORD PTR [38h], RDX
000012F2 48 89 4C 24 30                               MOV QWORD PTR [30h], RCX
000012F7 48 8D 0D 42 62 00 00                         LEA RCX,  [RIP+6242h]
000012FE 48 89 4C 24 28                               MOV QWORD PTR [28h], RCX
00001303 48 8D 8C 24 A0 00 00 00                      LEA RCX,  [a0h]
0000130B 48 8D 15 96 62 00 00                         LEA RDX,  [RIP+6296h]
00001312 48 89 5C 24 20                               MOV QWORD PTR [20h], RBX
00001317 FF D0                                        CALL RAX
00001319 4C 8B 4E 0C                                  MOV R9, QWORD PTR [RSI+ch]
0000131D 48 8D 54 24 68                               LEA RDX,  [68h]
00001322 48 8D 4C 24 50                               LEA RCX,  [50h]
00001327 4C 8B C3                                     MOV R8, RBX
0000132A 49 83 E9 24                                  SUB R9, 24h
0000132E E8 0D 02 00 00                               CALL 1540h
00001333 48 8D 8C 24 A0 00 00 00                      LEA RCX,  [a0h]
0000133B E8 B0 02 00 00                               CALL 15f0h
00001340 48 8D 8C 24 A0 00 00 00                      LEA RCX,  [a0h]
00001348 4C 8D 0D 71 62 00 00                         LEA R9,  [RIP+6271h]
0000134F 48 03 C8                                     ADD RCX, RAX
00001352 48 8D 05 63 62 00 00                         LEA RAX,  [RIP+6263h]
00001359 4C 8D 44 24 50                               LEA R8,  [50h]
0000135E 48 89 44 24 28                               MOV QWORD PTR [28h], RAX
00001363 48 8D 44 24 68                               LEA RAX,  [68h]
00001368 48 8D 15 59 62 00 00                         LEA RDX,  [RIP+6259h]
0000136F 48 89 44 24 20                               MOV QWORD PTR [20h], RAX
00001374 FF 15 96 82 00 00                            CALL QWORD PTR [RIP+8296h]
0000137A 4C 8D 8C 24 A0 00 00 00                      LEA R9,  [a0h]
00001382 EB 07                                        JMP 138bh
00001384 4C 8D 0D 25 61 00 00                         LEA R9,  [RIP+6125h]
0000138B 41 B8 04 00 00 00                            MOV R8D, 4h
00001391 8B D7                                        MOV EDX, EDI
00001393 48 8B CD                                     MOV RCX, RBP
00001396 E8 75 02 00 00                               CALL 1610h
0000139B 48 8B 9C 24 C0 01 00 00                      MOV RBX, QWORD PTR [1c0h]
000013A3 48 8B 8C 24 B0 01 00 00                      MOV RCX, QWORD PTR [1b0h]
000013AB 48 33 CC                                     XOR RCX, RSP
000013AE E8 DD F8 FF FF                               CALL c90h
000013B3 48 81 C4 C8 01 00 00                         ADD RSP, 1c8h
000013BA 41 5E                                        POP R14
000013BC 5F                                           POP RDI
000013BD 5E                                           POP RSI
000013BE 5D                                           POP RBP
000013BF C3                                           RET 
000013C0 83 FA 04                                     CMP EDX, 4h
000013C3 77 2B                                        JNBE 13f0h
000013C5 4C 8D 0D 34 E0 FF FF                         LEA R9,  [RIP-1fcch]
000013CC 48 63 C2                                     MOVSXD RAX, EDX
000013CF 45 8B 94 81 B0 A0 00 00                      MOV R10D, DWORD PTR [R9+RAX*4+a0b0h]
000013D7 4D 8B 8C C1 D8 7B 00 00                      MOV R9, QWORD PTR [R9+RAX*8+7bd8h]
000013DF 41 83 FA FF                                  CMP R10D, -1h
000013E3 74 28                                        JZ 140dh
000013E5 44 8B C2                                     MOV R8D, EDX
000013E8 41 8B D2                                     MOV EDX, R10D
000013EB E9 20 02 00 00                               JMP 1610h
000013F0 4C 8B 0D 09 5C 00 00                         MOV R9, QWORD PTR [RIP+5c09h]
000013F7 BA 05 00 00 00                               MOV EDX, 5h
000013FC 41 BA 01 00 00 00                            MOV R10D, 1h
00001402 44 8B C2                                     MOV R8D, EDX
00001405 41 8B D2                                     MOV EDX, R10D
00001408 E9 03 02 00 00                               JMP 1610h
0000140D C3                                           RET 
0000140E CC                                           INT 3 
0000140F CC                                           INT 3 
00001410 48 89 5C 24 18                               MOV QWORD PTR [18h], RBX
00001415 48 89 74 24 20                               MOV QWORD PTR [20h], RSI
0000141A 57                                           PUSH RDI
0000141B 48 81 EC 30 04 00 00                         SUB RSP, 430h
00001422 48 8B 05 77 80 00 00                         MOV RAX, QWORD PTR [RIP+8077h]
00001429 48 33 C4                                     XOR RAX, RSP
0000142C 48 89 84 24 20 04 00 00                      MOV QWORD PTR [420h], RAX
00001434 8B 3D 7E 80 00 00                            MOV EDI, DWORD PTR [RIP+807eh]
0000143A 48 8B DA                                     MOV RBX, RDX
0000143D 48 8B F1                                     MOV RSI, RCX
00001440 83 FF FF                                     CMP EDI, -1h
00001443 0F 84 D1 00 00 00                            JZ 151ah
00001449 80 3A 00                                     CMP BYTE PTR [RDX], 0h
0000144C 0F 84 B1 00 00 00                            JZ 1503h
00001452 48 8B CA                                     MOV RCX, RDX
00001455 E8 96 01 00 00                               CALL 15f0h
0000145A 48 83 C0 2D                                  ADD RAX, 2dh
0000145E 48 3D 00 04 00 00                            CMP RAX, 400h
00001464 0F 87 99 00 00 00                            JNBE 1503h
0000146A 4C 8D 4C 24 20                               LEA R9,  [20h]
0000146F 33 C9                                        XOR ECX, ECX
00001471 48 8D 15 A8 5B 00 00                         LEA RDX,  [RIP+5ba8h]
00001478 0F 1F 84 00 00 00 00 00                      NOP DWORD PTR [RAX+RAX+0h]
00001480 0F B6 04 11                                  MOVZX EAX, BYTE PTR [RCX+RDX]
00001484 48 8D 49 01                                  LEA RCX,  [RCX+1h]
00001488 88 44 0C 1F                                  MOV BYTE PTR [RSP+RCX+1fh], AL
0000148C 84 C0                                        TEST AL, AL
0000148E 75 F0                                        JNZ 1480h
00001490 48 8D 4C 24 20                               LEA RCX,  [20h]
00001495 48 FF C9                                     DEC RCX
00001498 0F 1F 84 00 00 00 00 00                      NOP DWORD PTR [RAX+RAX+0h]
000014A0 80 79 01 00                                  CMP BYTE PTR [RCX+1h], 0h
000014A4 48 8D 49 01                                  LEA RCX,  [RCX+1h]
000014A8 75 F6                                        JNZ 14a0h
000014AA 33 D2                                        XOR EDX, EDX
000014AC 0F 1F 40 00                                  NOP DWORD PTR [RAX+0h]
000014B0 0F B6 04 13                                  MOVZX EAX, BYTE PTR [RBX+RDX]
000014B4 48 8D 52 01                                  LEA RDX,  [RDX+1h]
000014B8 88 44 11 FF                                  MOV BYTE PTR [RCX+RDX-1h], AL
000014BC 84 C0                                        TEST AL, AL
000014BE 75 F0                                        JNZ 14b0h
000014C0 48 8D 4C 24 20                               LEA RCX,  [20h]
000014C5 48 FF C9                                     DEC RCX
000014C8 0F 1F 84 00 00 00 00 00                      NOP DWORD PTR [RAX+RAX+0h]
000014D0 80 79 01 00                                  CMP BYTE PTR [RCX+1h], 0h
000014D4 48 8D 49 01                                  LEA RCX,  [RCX+1h]
000014D8 75 F6                                        JNZ 14d0h
000014DA 4C 8D 05 5F 5B 00 00                         LEA R8,  [RIP+5b5fh]
000014E1 33 D2                                        XOR EDX, EDX
000014E3 0F 1F 40 00                                  NOP DWORD PTR [RAX+0h]
000014E7 66 0F 1F 84 00 00 00 00 00                   NOP WORD PTR [RAX+RAX+0h]
000014F0 41 0F B6 04 10                               MOVZX EAX, BYTE PTR [R8+RDX]
000014F5 48 8D 52 01                                  LEA RDX,  [RDX+1h]
000014F9 88 44 11 FF                                  MOV BYTE PTR [RCX+RDX-1h], AL
000014FD 84 C0                                        TEST AL, AL
000014FF 75 EF                                        JNZ 14f0h
00001501 EB 07                                        JMP 150ah
00001503 4C 8D 0D 46 5F 00 00                         LEA R9,  [RIP+5f46h]
0000150A 41 B8 02 00 00 00                            MOV R8D, 2h
00001510 8B D7                                        MOV EDX, EDI
00001512 48 8B CE                                     MOV RCX, RSI
00001515 E8 F6 00 00 00                               CALL 1610h
0000151A 48 8B 8C 24 20 04 00 00                      MOV RCX, QWORD PTR [420h]
00001522 48 33 CC                                     XOR RCX, RSP
00001525 E8 66 F7 FF FF                               CALL c90h
0000152A 4C 8D 9C 24 30 04 00 00                      LEA R11,  [430h]
00001532 49 8B 5B 20                                  MOV RBX, QWORD PTR [R11+20h]
00001536 49 8B 73 28                                  MOV RSI, QWORD PTR [R11+28h]
0000153A 49 8B E3                                     MOV RSP, R11
0000153D 5F                                           POP RDI
0000153E C3                                           RET 
0000153F CC                                           INT 3 
00001540 40 55                                        PUSH RBP
00001542 41 54                                        PUSH R12
00001544 41 55                                        PUSH R13
00001546 41 56                                        PUSH R14
00001548 41 57                                        PUSH R15
0000154A 48 83 EC 20                                  SUB RSP, 20h
0000154E BD 10 00 00 00                               MOV EBP, 10h
00001553 45 33 F6                                     XOR R14D, R14D
00001556 4D 8B F8                                     MOV R15, R8
00001559 4C 3B CD                                     CMP R9, RBP
0000155C 4C 8B EA                                     MOV R13, RDX
0000155F 4C 8B E1                                     MOV R12, RCX
00001562 49 0F 42 E9                                  CMOVB RBP, R9
00001566 48 85 ED                                     TEST RBP, RBP
00001569 74 5B                                        JZ 15c6h
0000156B 48 89 5C 24 50                               MOV QWORD PTR [50h], RBX
00001570 48 89 74 24 58                               MOV QWORD PTR [58h], RSI
00001575 48 89 7C 24 60                               MOV QWORD PTR [60h], RDI
0000157A 48 8B F9                                     MOV RDI, RCX
0000157D 48 8B F2                                     MOV RSI, RDX
00001580 4C 2B F9                                     SUB R15, RCX
00001583 4C 8B F5                                     MOV R14, RBP
00001586 66 66 0F 1F 84 00 00 00 00 00                NOP WORD PTR [RAX+RAX+0h]
00001590 41 0F B6 1C 3F                               MOVZX EBX, BYTE PTR [R15+RDI]
00001595 48 8D 15 DC 5E 00 00                         LEA RDX,  [RIP+5edch]
0000159C 48 8B CE                                     MOV RCX, RSI
0000159F 44 8B C3                                     MOV R8D, EBX
000015A2 FF 15 68 80 00 00                            CALL QWORD PTR [RIP+8068h]
000015A8 48 83 C6 03                                  ADD RSI, 3h
000015AC 88 1F                                        MOV BYTE PTR [RDI], BL
000015AE 48 8D 7F 01                                  LEA RDI,  [RDI+1h]
000015B2 48 FF CD                                     DEC RBP
000015B5 75 D9                                        JNZ 1590h
000015B7 48 8B 7C 24 60                               MOV RDI, QWORD PTR [60h]
000015BC 48 8B 74 24 58                               MOV RSI, QWORD PTR [58h]
000015C1 48 8B 5C 24 50                               MOV RBX, QWORD PTR [50h]
000015C6 4A 8D 04 75 00 00 00 00                      LEA RAX,  [RBP+R14*2+0h]
000015CE 43 C6 04 26 00                               MOV BYTE PTR [R14+R12], 0h
000015D3 49 03 C5                                     ADD RAX, R13
000015D6 41 C6 04 06 00                               MOV BYTE PTR [R14+RAX], 0h
000015DB 48 83 C4 20                                  ADD RSP, 20h
000015DF 41 5F                                        POP R15
000015E1 41 5E                                        POP R14
000015E3 41 5D                                        POP R13
000015E5 41 5C                                        POP R12
000015E7 5D                                           POP RBP
000015E8 C3                                           RET 
000015E9 CC                                           INT 3 
000015EA CC                                           INT 3 
000015EB CC                                           INT 3 
000015EC CC                                           INT 3 
000015ED CC                                           INT 3 
000015EE CC                                           INT 3 
000015EF CC                                           INT 3 
000015F0 48 8B C1                                     MOV RAX, RCX
000015F3 0F B6 10                                     MOVZX EDX, BYTE PTR [RAX]
000015F6 48 FF C0                                     INC RAX
000015F9 84 D2                                        TEST DL, DL
000015FB 75 F6                                        JNZ 15f3h
000015FD 48 2B C1                                     SUB RAX, RCX
00001600 48 FF C8                                     DEC RAX
00001603 C3                                           RET 
00001604 CC                                           INT 3 
00001605 CC                                           INT 3 
00001606 CC                                           INT 3 
00001607 CC                                           INT 3 
00001608 CC                                           INT 3 
00001609 CC                                           INT 3 
0000160A CC                                           INT 3 
0000160B CC                                           INT 3 
0000160C CC                                           INT 3 
0000160D CC                                           INT 3 
0000160E CC                                           INT 3 
0000160F CC                                           INT 3 
00001610 40 53                                        PUSH RBX
00001612 55                                           PUSH RBP
00001613 57                                           PUSH RDI
00001614 41 54                                        PUSH R12
00001616 41 55                                        PUSH R13
00001618 41 56                                        PUSH R14
0000161A 41 57                                        PUSH R15
0000161C 48 81 EC B0 0E 00 00                         SUB RSP, eb0h
00001623 48 8B 05 76 7E 00 00                         MOV RAX, QWORD PTR [RIP+7e76h]
0000162A 48 33 C4                                     XOR RAX, RSP
0000162D 48 89 84 24 90 0E 00 00                      MOV QWORD PTR [e90h], RAX
00001635 45 33 ED                                     XOR R13D, R13D
00001638 4D 8B F9                                     MOV R15, R9
0000163B 49 63 E8                                     MOVSXD RBP, R8D
0000163E 44 8B E2                                     MOV R12D, EDX
00001641 48 8B F9                                     MOV RDI, RCX
00001644 45 8B F5                                     MOV R14D, R13D
00001647 E8 54 03 00 00                               CALL 19a0h
0000164C 48 8B D8                                     MOV RBX, RAX
0000164F 48 85 C0                                     TEST RAX, RAX
00001652 75 0B                                        JNZ 165fh
00001654 48 8B CF                                     MOV RCX, RDI
00001657 E8 34 03 00 00                               CALL 1990h
0000165C 4C 8B F0                                     MOV R14, RAX
0000165F 41 83 C9 FF                                  OR R9D, -1h
00001663 4D 8B C7                                     MOV R8, R15
00001666 33 D2                                        XOR EDX, EDX
00001668 B9 E9 FD 00 00                               MOV ECX, fde9h
0000166D 44 89 6C 24 28                               MOV DWORD PTR [28h], R13D
00001672 48 89 B4 24 A8 0E 00 00                      MOV QWORD PTR [ea8h], RSI
0000167A 4C 89 6C 24 20                               MOV QWORD PTR [20h], R13
0000167F FF 15 43 9E 00 00                            CALL QWORD PTR [RIP+9e43h]
00001685 48 63 C8                                     MOVSXD RCX, EAX
00001688 48 81 F9 00 02 00 00                         CMP RCX, 200h
0000168F 73 31                                        JNB 16c2h
00001691 89 44 24 28                                  MOV DWORD PTR [28h], EAX
00001695 48 8D 84 24 90 0A 00 00                      LEA RAX,  [a90h]
0000169D 41 83 C9 FF                                  OR R9D, -1h
000016A1 4D 8B C7                                     MOV R8, R15
000016A4 33 D2                                        XOR EDX, EDX
000016A6 B9 E9 FD 00 00                               MOV ECX, fde9h
000016AB 48 89 44 24 20                               MOV QWORD PTR [20h], RAX
000016B0 FF 15 12 9E 00 00                            CALL QWORD PTR [RIP+9e12h]
000016B6 48 8D B4 24 90 0A 00 00                      LEA RSI,  [a90h]
000016BE 85 C0                                        TEST EAX, EAX
000016C0 75 07                                        JNZ 16c9h
000016C2 48 8D 35 87 5C 00 00                         LEA RSI,  [RIP+5c87h]
000016C9 B9 02 10 00 00                               MOV ECX, 1002h
000016CE E8 8D FA FF FF                               CALL 1160h
000016D3 85 C0                                        TEST EAX, EAX
000016D5 74 21                                        JZ 16f8h
000016D7 48 8D 0D 2A 59 00 00                         LEA RCX,  [RIP+592ah]
000016DE 4C 8B CE                                     MOV R9, RSI
000016E1 4C 8B C7                                     MOV R8, RDI
000016E4 8B 14 A9                                     MOV EDX, DWORD PTR [RCX+RBP*4]
000016E7 8B CD                                        MOV ECX, EBP
000016E9 E8 C2 FA FF FF                               CALL 11b0h
000016EE 85 C0                                        TEST EAX, EAX
000016F0 0F 85 48 01 00 00                            JNZ 183eh
000016F6 EB 02                                        JMP 16fah
000016F8 B0 01                                        MOV AL, 1h
000016FA 4D 85 F6                                     TEST R14, R14
000016FD 75 09                                        JNZ 1708h
000016FF 48 85 DB                                     TEST RBX, RBX
00001702 0F 84 35 01 00 00                            JZ 183dh
00001708 84 C0                                        TEST AL, AL
0000170A 74 0E                                        JZ 171ah
0000170C FF 15 DE 9D 00 00                            CALL QWORD PTR [RIP+9ddeh]
00001712 85 C0                                        TEST EAX, EAX
00001714 0F 85 23 01 00 00                            JNZ 183dh
0000171A 48 8D 44 24 50                               LEA RAX,  [50h]
0000171F 48 8D 4F FB                                  LEA RCX,  [RDI-5h]
00001723 4C 8D 4C 24 40                               LEA R9,  [40h]
00001728 48 8D 94 24 60 02 00 00                      LEA RDX,  [260h]
00001730 41 B8 04 01 00 00                            MOV R8D, 104h
00001736 C7 44 24 28 04 01 00 00                      MOV DWORD PTR [28h], 104h
0000173E 48 89 44 24 20                               MOV QWORD PTR [20h], RAX
00001743 E8 38 11 00 00                               CALL 2880h
00001748 48 85 DB                                     TEST RBX, RBX
0000174B 74 31                                        JZ 177eh
0000174D 44 8B 44 24 40                               MOV R8D, DWORD PTR [40h]
00001752 48 8D 05 67 5C 00 00                         LEA RAX,  [RIP+5c67h]
00001759 48 89 74 24 30                               MOV QWORD PTR [30h], RSI
0000175E 4C 8D 4C 24 50                               LEA R9,  [50h]
00001763 48 8D 94 24 60 02 00 00                      LEA RDX,  [260h]
0000176B 41 8B CC                                     MOV ECX, R12D
0000176E 89 6C 24 28                                  MOV DWORD PTR [28h], EBP
00001772 48 89 44 24 20                               MOV QWORD PTR [20h], RAX
00001777 FF D3                                        CALL RBX
00001779 E9 BA 00 00 00                               JMP 1838h
0000177E 4C 89 6C 24 38                               MOV QWORD PTR [38h], R13
00001783 48 8D 84 24 70 04 00 00                      LEA RAX,  [470h]
0000178B 4C 89 6C 24 30                               MOV QWORD PTR [30h], R13
00001790 4C 8D 84 24 60 02 00 00                      LEA R8,  [260h]
00001798 41 83 C9 FF                                  OR R9D, -1h
0000179C 33 D2                                        XOR EDX, EDX
0000179E B9 E9 FD 00 00                               MOV ECX, fde9h
000017A3 C7 44 24 28 0A 03 00 00                      MOV DWORD PTR [28h], 30ah
000017AB 48 8D 3D 4E 5C 00 00                         LEA RDI,  [RIP+5c4eh]
000017B2 48 89 44 24 20                               MOV QWORD PTR [20h], RAX
000017B7 FF 15 03 9D 00 00                            CALL QWORD PTR [RIP+9d03h]
000017BD 4C 89 6C 24 38                               MOV QWORD PTR [38h], R13
000017C2 85 C0                                        TEST EAX, EAX
000017C4 48 8D 84 24 80 07 00 00                      LEA RAX,  [780h]
000017CC 4C 89 6C 24 30                               MOV QWORD PTR [30h], R13
000017D1 48 8D 9C 24 70 04 00 00                      LEA RBX,  [470h]
000017D9 4C 8D 44 24 50                               LEA R8,  [50h]
000017DE B9 E9 FD 00 00                               MOV ECX, fde9h
000017E3 48 0F 44 DF                                  CMOVZ RBX, RDI
000017E7 41 83 C9 FF                                  OR R9D, -1h
000017EB 33 D2                                        XOR EDX, EDX
000017ED C7 44 24 28 0A 03 00 00                      MOV DWORD PTR [28h], 30ah
000017F5 48 89 44 24 20                               MOV QWORD PTR [20h], RAX
000017FA 48 8D 3D 17 5C 00 00                         LEA RDI,  [RIP+5c17h]
00001801 FF 15 B9 9C 00 00                            CALL QWORD PTR [RIP+9cb9h]
00001807 44 8B 44 24 40                               MOV R8D, DWORD PTR [40h]
0000180C 4C 89 7C 24 30                               MOV QWORD PTR [30h], R15
00001811 85 C0                                        TEST EAX, EAX
00001813 48 8D 05 16 5C 00 00                         LEA RAX,  [RIP+5c16h]
0000181A 4C 8D 8C 24 80 07 00 00                      LEA R9,  [780h]
00001822 48 8B D3                                     MOV RDX, RBX
00001825 41 8B CC                                     MOV ECX, R12D
00001828 4C 0F 44 CF                                  CMOVZ R9, RDI
0000182C 89 6C 24 28                                  MOV DWORD PTR [28h], EBP
00001830 48 89 44 24 20                               MOV QWORD PTR [20h], RAX
00001835 41 FF D6                                     CALL R14
00001838 83 F8 01                                     CMP EAX, 1h
0000183B 75 01                                        JNZ 183eh
0000183D CC                                           INT 3 
0000183E 48 8B B4 24 A8 0E 00 00                      MOV RSI, QWORD PTR [ea8h]
00001846 48 8B 8C 24 90 0E 00 00                      MOV RCX, QWORD PTR [e90h]
0000184E 48 33 CC                                     XOR RCX, RSP
00001851 E8 3A F4 FF FF                               CALL c90h
00001856 48 81 C4 B0 0E 00 00                         ADD RSP, eb0h
0000185D 41 5F                                        POP R15
0000185F 41 5E                                        POP R14
00001861 41 5D                                        POP R13
00001863 41 5C                                        POP R12
00001865 5F                                           POP RDI
00001866 5D                                           POP RBP
00001867 5B                                           POP RBX
00001868 C3                                           RET 
00001869 CC                                           INT 3 
0000186A CC                                           INT 3 
0000186B CC                                           INT 3 
0000186C CC                                           INT 3 
0000186D CC                                           INT 3 
0000186E CC                                           INT 3 
0000186F CC                                           INT 3 
00001870 48 89 5C 24 10                               MOV QWORD PTR [10h], RBX
00001875 57                                           PUSH RDI
00001876 48 81 EC 30 04 00 00                         SUB RSP, 430h
0000187D 48 8B 05 1C 7C 00 00                         MOV RAX, QWORD PTR [RIP+7c1ch]
00001884 48 33 C4                                     XOR RAX, RSP
00001887 48 89 84 24 20 04 00 00                      MOV QWORD PTR [420h], RAX
0000188F 8B 3D 27 7C 00 00                            MOV EDI, DWORD PTR [RIP+7c27h]
00001895 48 8B D9                                     MOV RBX, RCX
00001898 83 FF FF                                     CMP EDI, -1h
0000189B 0F 84 CE 00 00 00                            JZ 196fh
000018A1 48 85 C9                                     TEST RCX, RCX
000018A4 0F 84 A9 00 00 00                            JZ 1953h
000018AA E8 41 FD FF FF                               CALL 15f0h
000018AF 48 83 C0 3A                                  ADD RAX, 3ah
000018B3 48 3D 00 04 00 00                            CMP RAX, 400h
000018B9 0F 87 94 00 00 00                            JNBE 1953h
000018BF 4C 8D 4C 24 20                               LEA R9,  [20h]
000018C4 33 C9                                        XOR ECX, ECX
000018C6 48 8D 15 8B 57 00 00                         LEA RDX,  [RIP+578bh]
000018CD 0F 1F 00                                     NOP DWORD PTR [RAX]
000018D0 0F B6 04 11                                  MOVZX EAX, BYTE PTR [RCX+RDX]
000018D4 48 8D 49 01                                  LEA RCX,  [RCX+1h]
000018D8 88 44 0C 1F                                  MOV BYTE PTR [RSP+RCX+1fh], AL
000018DC 84 C0                                        TEST AL, AL
000018DE 75 F0                                        JNZ 18d0h
000018E0 48 8D 4C 24 20                               LEA RCX,  [20h]
000018E5 48 FF C9                                     DEC RCX
000018E8 0F 1F 84 00 00 00 00 00                      NOP DWORD PTR [RAX+RAX+0h]
000018F0 80 79 01 00                                  CMP BYTE PTR [RCX+1h], 0h
000018F4 48 8D 49 01                                  LEA RCX,  [RCX+1h]
000018F8 75 F6                                        JNZ 18f0h
000018FA 33 D2                                        XOR EDX, EDX
000018FC 0F 1F 40 00                                  NOP DWORD PTR [RAX+0h]
00001900 0F B6 04 13                                  MOVZX EAX, BYTE PTR [RBX+RDX]
00001904 48 8D 52 01                                  LEA RDX,  [RDX+1h]
00001908 88 44 11 FF                                  MOV BYTE PTR [RCX+RDX-1h], AL
0000190C 84 C0                                        TEST AL, AL
0000190E 75 F0                                        JNZ 1900h
00001910 48 8D 4C 24 20                               LEA RCX,  [20h]
00001915 48 FF C9                                     DEC RCX
00001918 0F 1F 84 00 00 00 00 00                      NOP DWORD PTR [RAX+RAX+0h]
00001920 80 79 01 00                                  CMP BYTE PTR [RCX+1h], 0h
00001924 48 8D 49 01                                  LEA RCX,  [RCX+1h]
00001928 75 F6                                        JNZ 1920h
0000192A 4C 8D 05 37 57 00 00                         LEA R8,  [RIP+5737h]
00001931 33 D2                                        XOR EDX, EDX
00001933 0F 1F 40 00                                  NOP DWORD PTR [RAX+0h]
00001937 66 0F 1F 84 00 00 00 00 00                   NOP WORD PTR [RAX+RAX+0h]
00001940 41 0F B6 04 10                               MOVZX EAX, BYTE PTR [R8+RDX]
00001945 48 8D 52 01                                  LEA RDX,  [RDX+1h]
00001949 88 44 11 FF                                  MOV BYTE PTR [RCX+RDX-1h], AL
0000194D 84 C0                                        TEST AL, AL
0000194F 75 EF                                        JNZ 1940h
00001951 EB 07                                        JMP 195ah
00001953 4C 8D 0D 7E 5C 00 00                         LEA R9,  [RIP+5c7eh]
0000195A 48 8B 8C 24 38 04 00 00                      MOV RCX, QWORD PTR [438h]
00001962 41 B8 03 00 00 00                            MOV R8D, 3h
00001968 8B D7                                        MOV EDX, EDI
0000196A E8 A1 FC FF FF                               CALL 1610h
0000196F 48 8B 8C 24 20 04 00 00                      MOV RCX, QWORD PTR [420h]
00001977 48 33 CC                                     XOR RCX, RSP
0000197A E8 11 F3 FF FF                               CALL c90h
0000197F 48 8B 9C 24 48 04 00 00                      MOV RBX, QWORD PTR [448h]
00001987 48 81 C4 30 04 00 00                         ADD RSP, 430h
0000198E 5F                                           POP RDI
0000198F C3                                           RET 
00001990 48 8B 05 81 7C 00 00                         MOV RAX, QWORD PTR [RIP+7c81h]
00001997 C3                                           RET 
00001998 CC                                           INT 3 
00001999 CC                                           INT 3 
0000199A CC                                           INT 3 
0000199B CC                                           INT 3 
0000199C CC                                           INT 3 
0000199D CC                                           INT 3 
0000199E CC                                           INT 3 
0000199F CC                                           INT 3 
000019A0 48 8B 05 79 7C 00 00                         MOV RAX, QWORD PTR [RIP+7c79h]
000019A7 C3                                           RET 
000019A8 CC                                           INT 3 
000019A9 CC                                           INT 3 
000019AA CC                                           INT 3 
000019AB CC                                           INT 3 
000019AC CC                                           INT 3 
000019AD CC                                           INT 3 
000019AE CC                                           INT 3 
000019AF CC                                           INT 3 
000019B0 83 F9 04                                     CMP ECX, 4h
000019B3 77 0F                                        JNBE 19c4h
000019B5 48 63 C1                                     MOVSXD RAX, ECX
000019B8 48 8D 0D 51 5C 00 00                         LEA RCX,  [RIP+5c51h]
000019BF 48 8B 04 C1                                  MOV RAX, QWORD PTR [RCX+RAX*8]
000019C3 C3                                           RET 
000019C4 33 C0                                        XOR EAX, EAX
000019C6 C3                                           RET 
000019C7 CC                                           INT 3 
000019C8 CC                                           INT 3 
000019C9 CC                                           INT 3 
000019CA CC                                           INT 3 
000019CB CC                                           INT 3 
000019CC CC                                           INT 3 
000019CD CC                                           INT 3 
000019CE CC                                           INT 3 
000019CF CC                                           INT 3 
000019D0 B8 05 00 00 00                               MOV EAX, 5h
000019D5 C3                                           RET 
000019D6 CC                                           INT 3 
000019D7 CC                                           INT 3 
000019D8 CC                                           INT 3 
000019D9 CC                                           INT 3 
000019DA CC                                           INT 3 
000019DB CC                                           INT 3 
000019DC CC                                           INT 3 
000019DD CC                                           INT 3 
000019DE CC                                           INT 3 
000019DF CC                                           INT 3 
000019E0 48 8B 05 31 7C 00 00                         MOV RAX, QWORD PTR [RIP+7c31h]
000019E7 48 C7 05 2E 7C 00 00 00 00 00 00             MOV QWORD PTR [RIP+7c2eh], 0h
000019F2 48 89 0D 1F 7C 00 00                         MOV QWORD PTR [RIP+7c1fh], RCX
000019F9 C3                                           RET 
000019FA CC                                           INT 3 
000019FB CC                                           INT 3 
000019FC CC                                           INT 3 
000019FD CC                                           INT 3 
000019FE CC                                           INT 3 
000019FF CC                                           INT 3 
00001A00 48 8B 05 19 7C 00 00                         MOV RAX, QWORD PTR [RIP+7c19h]
00001A07 48 C7 05 06 7C 00 00 00 00 00 00             MOV QWORD PTR [RIP+7c06h], 0h
00001A12 48 89 0D 07 7C 00 00                         MOV QWORD PTR [RIP+7c07h], RCX
00001A19 C3                                           RET 
00001A1A CC                                           INT 3 
00001A1B CC                                           INT 3 
00001A1C CC                                           INT 3 
00001A1D CC                                           INT 3 
00001A1E CC                                           INT 3 
00001A1F CC                                           INT 3 
00001A20 83 F9 04                                     CMP ECX, 4h
00001A23 77 15                                        JNBE 1a3ah
00001A25 48 63 C1                                     MOVSXD RAX, ECX
00001A28 4C 8D 05 81 7A 00 00                         LEA R8,  [RIP+7a81h]
00001A2F 41 8B 0C 80                                  MOV ECX, DWORD PTR [R8+RAX*4]
00001A33 41 89 14 80                                  MOV DWORD PTR [R8+RAX*4], EDX
00001A37 8B C1                                        MOV EAX, ECX
00001A39 C3                                           RET 
00001A3A 83 C8 FF                                     OR EAX, -1h
00001A3D C3                                           RET 
00001A3E FF 25 3C 9C 00 00                            JMP QWORD PTR [RIP+9c3ch]
00001A44 CC                                           INT 3 
00001A45 CC                                           INT 3 
00001A46 CC                                           INT 3 
00001A47 CC                                           INT 3 
00001A48 CC                                           INT 3 
00001A49 CC                                           INT 3 
00001A4A CC                                           INT 3 
00001A4B CC                                           INT 3 
00001A4C CC                                           INT 3 
00001A4D CC                                           INT 3 
00001A4E CC                                           INT 3 
00001A4F CC                                           INT 3 
00001A50 48 89 4C 24 08                               MOV QWORD PTR [8h], RCX
00001A55 48 83 EC 28                                  SUB RSP, 28h
00001A59 FF 15 91 9A 00 00                            CALL QWORD PTR [RIP+9a91h]
00001A5F 89 05 3B 81 00 00                            MOV DWORD PTR [RIP+813bh], EAX
00001A65 B9 01 00 00 00                               MOV ECX, 1h
00001A6A E8 9B 11 00 00                               CALL 2c0ah
00001A6F 48 8B 4C 24 30                               MOV RCX, QWORD PTR [30h]
00001A74 E8 97 11 00 00                               CALL 2c10h
00001A79 83 3D 20 81 00 00 00                         CMP DWORD PTR [RIP+8120h], 0h
00001A80 75 0A                                        JNZ 1a8ch
00001A82 B9 01 00 00 00                               MOV ECX, 1h
00001A87 E8 7E 11 00 00                               CALL 2c0ah
00001A8C B9 09 04 00 C0                               MOV ECX, c0000409h
00001A91 E8 80 11 00 00                               CALL 2c16h
00001A96 48 83 C4 28                                  ADD RSP, 28h
00001A9A C3                                           RET 
00001A9B CC                                           INT 3 
00001A9C CC                                           INT 3 
00001A9D CC                                           INT 3 
00001A9E CC                                           INT 3 
00001A9F CC                                           INT 3 
00001AA0 48 89 4C 24 08                               MOV QWORD PTR [8h], RCX
00001AA5 48 83 EC 38                                  SUB RSP, 38h
00001AA9 B9 17 00 00 00                               MOV ECX, 17h
00001AAE E8 DB 11 00 00                               CALL 2c8eh
00001AB3 85 C0                                        TEST EAX, EAX
00001AB5 74 07                                        JZ 1abeh
00001AB7 B9 02 00 00 00                               MOV ECX, 2h
00001ABC CD 29                                        INT 29h
00001ABE 48 8D 0D 0B 7C 00 00                         LEA RCX,  [RIP+7c0bh]
00001AC5 E8 58 11 00 00                               CALL 2c22h
00001ACA 48 8B 44 24 38                               MOV RAX, QWORD PTR [38h]
00001ACF 48 89 05 F2 7C 00 00                         MOV QWORD PTR [RIP+7cf2h], RAX
00001AD6 48 8D 44 24 38                               LEA RAX,  [38h]
00001ADB 48 83 C0 08                                  ADD RAX, 8h
00001ADF 48 89 05 82 7C 00 00                         MOV QWORD PTR [RIP+7c82h], RAX
00001AE6 48 8B 05 DB 7C 00 00                         MOV RAX, QWORD PTR [RIP+7cdbh]
00001AED 48 89 05 4C 7B 00 00                         MOV QWORD PTR [RIP+7b4ch], RAX
00001AF4 48 8B 44 24 40                               MOV RAX, QWORD PTR [40h]
00001AF9 48 89 05 50 7C 00 00                         MOV QWORD PTR [RIP+7c50h], RAX
00001B00 C7 05 26 7B 00 00 09 04 00 C0                MOV DWORD PTR [RIP+7b26h], c0000409h
00001B0A C7 05 20 7B 00 00 01 00 00 00                MOV DWORD PTR [RIP+7b20h], 1h
00001B14 C7 05 2A 7B 00 00 01 00 00 00                MOV DWORD PTR [RIP+7b2ah], 1h
00001B1E B8 08 00 00 00                               MOV EAX, 8h
00001B23 48 6B C0 00                                  IMUL RAX, RAX, 0h
00001B27 48 8D 0D 22 7B 00 00                         LEA RCX,  [RIP+7b22h]
00001B2E 48 C7 04 01 02 00 00 00                      MOV QWORD PTR [RCX+RAX], 2h
00001B36 B8 08 00 00 00                               MOV EAX, 8h
00001B3B 48 6B C0 00                                  IMUL RAX, RAX, 0h
00001B3F 48 8B 0D 5A 79 00 00                         MOV RCX, QWORD PTR [RIP+795ah]
00001B46 48 89 4C 04 20                               MOV QWORD PTR [RSP+RAX+20h], RCX
00001B4B B8 08 00 00 00                               MOV EAX, 8h
00001B50 48 6B C0 01                                  IMUL RAX, RAX, 1h
00001B54 48 8B 0D 4D 79 00 00                         MOV RCX, QWORD PTR [RIP+794dh]
00001B5B 48 89 4C 04 20                               MOV QWORD PTR [RSP+RAX+20h], RCX
00001B60 48 8D 0D 89 5B 00 00                         LEA RCX,  [RIP+5b89h]
00001B67 E8 E4 FE FF FF                               CALL 1a50h
00001B6C 48 83 C4 38                                  ADD RSP, 38h
00001B70 C3                                           RET 
00001B71 CC                                           INT 3 
00001B72 CC                                           INT 3 
00001B73 CC                                           INT 3 
00001B74 CC                                           INT 3 
00001B75 CC                                           INT 3 
00001B76 CC                                           INT 3 
00001B77 CC                                           INT 3 
00001B78 CC                                           INT 3 
00001B79 CC                                           INT 3 
00001B7A CC                                           INT 3 
00001B7B CC                                           INT 3 
00001B7C CC                                           INT 3 
00001B7D CC                                           INT 3 
00001B7E CC                                           INT 3 
00001B7F CC                                           INT 3 
00001B80 48 83 EC 28                                  SUB RSP, 28h
00001B84 B9 08 00 00 00                               MOV ECX, 8h
00001B89 E8 12 00 00 00                               CALL 1ba0h
00001B8E 48 83 C4 28                                  ADD RSP, 28h
00001B92 C3                                           RET 
00001B93 CC                                           INT 3 
00001B94 CC                                           INT 3 
00001B95 CC                                           INT 3 
00001B96 CC                                           INT 3 
00001B97 CC                                           INT 3 
00001B98 CC                                           INT 3 
00001B99 CC                                           INT 3 
00001B9A CC                                           INT 3 
00001B9B CC                                           INT 3 
00001B9C CC                                           INT 3 
00001B9D CC                                           INT 3 
00001B9E CC                                           INT 3 
00001B9F CC                                           INT 3 
00001BA0 89 4C 24 08                                  MOV DWORD PTR [8h], ECX
00001BA4 48 83 EC 28                                  SUB RSP, 28h
00001BA8 B9 17 00 00 00                               MOV ECX, 17h
00001BAD E8 DC 10 00 00                               CALL 2c8eh
00001BB2 85 C0                                        TEST EAX, EAX
00001BB4 74 08                                        JZ 1bbeh
00001BB6 8B 44 24 30                                  MOV EAX, DWORD PTR [30h]
00001BBA 8B C8                                        MOV ECX, EAX
00001BBC CD 29                                        INT 29h
00001BBE 48 8D 0D 0B 7B 00 00                         LEA RCX,  [RIP+7b0bh]
00001BC5 E8 52 10 00 00                               CALL 2c1ch
00001BCA 48 8B 44 24 28                               MOV RAX, QWORD PTR [28h]
00001BCF 48 89 05 F2 7B 00 00                         MOV QWORD PTR [RIP+7bf2h], RAX
00001BD6 48 8D 44 24 28                               LEA RAX,  [28h]
00001BDB 48 83 C0 08                                  ADD RAX, 8h
00001BDF 48 89 05 82 7B 00 00                         MOV QWORD PTR [RIP+7b82h], RAX
00001BE6 48 8B 05 DB 7B 00 00                         MOV RAX, QWORD PTR [RIP+7bdbh]
00001BED 48 89 05 4C 7A 00 00                         MOV QWORD PTR [RIP+7a4ch], RAX
00001BF4 C7 05 32 7A 00 00 09 04 00 C0                MOV DWORD PTR [RIP+7a32h], c0000409h
00001BFE C7 05 2C 7A 00 00 01 00 00 00                MOV DWORD PTR [RIP+7a2ch], 1h
00001C08 C7 05 36 7A 00 00 01 00 00 00                MOV DWORD PTR [RIP+7a36h], 1h
00001C12 B8 08 00 00 00                               MOV EAX, 8h
00001C17 48 6B C0 00                                  IMUL RAX, RAX, 0h
00001C1B 48 8D 0D 2E 7A 00 00                         LEA RCX,  [RIP+7a2eh]
00001C22 8B 54 24 30                                  MOV EDX, DWORD PTR [30h]
00001C26 48 89 14 01                                  MOV QWORD PTR [RCX+RAX], RDX
00001C2A 48 8D 0D BF 5A 00 00                         LEA RCX,  [RIP+5abfh]
00001C31 E8 1A FE FF FF                               CALL 1a50h
00001C36 48 83 C4 28                                  ADD RSP, 28h
00001C3A C3                                           RET 
00001C3B CC                                           INT 3 
00001C3C CC                                           INT 3 
00001C3D CC                                           INT 3 
00001C3E CC                                           INT 3 
00001C3F CC                                           INT 3 
00001C40 4C 89 44 24 18                               MOV QWORD PTR [18h], R8
00001C45 89 54 24 10                                  MOV DWORD PTR [10h], EDX
00001C49 89 4C 24 08                                  MOV DWORD PTR [8h], ECX
00001C4D 48 83 EC 38                                  SUB RSP, 38h
00001C51 B9 17 00 00 00                               MOV ECX, 17h
00001C56 E8 33 10 00 00                               CALL 2c8eh
00001C5B 85 C0                                        TEST EAX, EAX
00001C5D 74 08                                        JZ 1c67h
00001C5F 8B 44 24 40                                  MOV EAX, DWORD PTR [40h]
00001C63 8B C8                                        MOV ECX, EAX
00001C65 CD 29                                        INT 29h
00001C67 48 8D 0D 62 7A 00 00                         LEA RCX,  [RIP+7a62h]
00001C6E E8 A9 0F 00 00                               CALL 2c1ch
00001C73 48 8B 44 24 38                               MOV RAX, QWORD PTR [38h]
00001C78 48 89 05 49 7B 00 00                         MOV QWORD PTR [RIP+7b49h], RAX
00001C7F 48 8D 44 24 38                               LEA RAX,  [38h]
00001C84 48 83 C0 08                                  ADD RAX, 8h
00001C88 48 89 05 D9 7A 00 00                         MOV QWORD PTR [RIP+7ad9h], RAX
00001C8F 48 8B 05 32 7B 00 00                         MOV RAX, QWORD PTR [RIP+7b32h]
00001C96 48 89 05 A3 79 00 00                         MOV QWORD PTR [RIP+79a3h], RAX
00001C9D C7 05 89 79 00 00 09 04 00 C0                MOV DWORD PTR [RIP+7989h], c0000409h
00001CA7 C7 05 83 79 00 00 01 00 00 00                MOV DWORD PTR [RIP+7983h], 1h
00001CB1 83 7C 24 48 00                               CMP DWORD PTR [48h], 0h
00001CB6 76 10                                        JBE 1cc8h
00001CB8 48 83 7C 24 50 00                            CMP QWORD PTR [50h], 0h
00001CBE 75 08                                        JNZ 1cc8h
00001CC0 C7 44 24 48 00 00 00 00                      MOV DWORD PTR [48h], 0h
00001CC8 83 7C 24 48 0E                               CMP DWORD PTR [48h], eh
00001CCD 76 0A                                        JBE 1cd9h
00001CCF 8B 44 24 48                                  MOV EAX, DWORD PTR [48h]
00001CD3 FF C8                                        DEC EAX
00001CD5 89 44 24 48                                  MOV DWORD PTR [48h], EAX
00001CD9 8B 44 24 48                                  MOV EAX, DWORD PTR [48h]
00001CDD FF C0                                        INC EAX
00001CDF 89 05 63 79 00 00                            MOV DWORD PTR [RIP+7963h], EAX
00001CE5 B8 08 00 00 00                               MOV EAX, 8h
00001CEA 48 6B C0 00                                  IMUL RAX, RAX, 0h
00001CEE 48 8D 0D 5B 79 00 00                         LEA RCX,  [RIP+795bh]
00001CF5 8B 54 24 40                                  MOV EDX, DWORD PTR [40h]
00001CF9 48 89 14 01                                  MOV QWORD PTR [RCX+RAX], RDX
00001CFD C7 44 24 20 00 00 00 00                      MOV DWORD PTR [20h], 0h
00001D05 EB 0A                                        JMP 1d11h
00001D07 8B 44 24 20                                  MOV EAX, DWORD PTR [20h]
00001D0B FF C0                                        INC EAX
00001D0D 89 44 24 20                                  MOV DWORD PTR [20h], EAX
00001D11 8B 44 24 48                                  MOV EAX, DWORD PTR [48h]
00001D15 39 44 24 20                                  CMP DWORD PTR [20h], EAX
00001D19 73 22                                        JNB 1d3dh
00001D1B 8B 44 24 20                                  MOV EAX, DWORD PTR [20h]
00001D1F 8B 4C 24 20                                  MOV ECX, DWORD PTR [20h]
00001D23 FF C1                                        INC ECX
00001D25 8B C9                                        MOV ECX, ECX
00001D27 48 8D 15 22 79 00 00                         LEA RDX,  [RIP+7922h]
00001D2E 4C 8B 44 24 50                               MOV R8, QWORD PTR [50h]
00001D33 49 8B 04 C0                                  MOV RAX, QWORD PTR [R8+RAX*8]
00001D37 48 89 04 CA                                  MOV QWORD PTR [RDX+RCX*8], RAX
00001D3B EB CA                                        JMP 1d07h
00001D3D 48 8D 0D AC 59 00 00                         LEA RCX,  [RIP+59ach]
00001D44 E8 07 FD FF FF                               CALL 1a50h
00001D49 48 83 C4 38                                  ADD RSP, 38h
00001D4D C3                                           RET 
00001D4E CC                                           INT 3 
00001D4F CC                                           INT 3 
00001D50 48 89 4C 24 08                               MOV QWORD PTR [8h], RCX
00001D55 48 83 EC 28                                  SUB RSP, 28h
00001D59 48 8B 44 24 30                               MOV RAX, QWORD PTR [30h]
00001D5E 48 8B 00                                     MOV RAX, QWORD PTR [RAX]
00001D61 81 38 63 73 6D E0                            CMP DWORD PTR [RAX], e06d7363h
00001D67 75 5E                                        JNZ 1dc7h
00001D69 48 8B 44 24 30                               MOV RAX, QWORD PTR [30h]
00001D6E 48 8B 00                                     MOV RAX, QWORD PTR [RAX]
00001D71 83 78 18 04                                  CMP DWORD PTR [RAX+18h], 4h
00001D75 75 50                                        JNZ 1dc7h
00001D77 48 8B 44 24 30                               MOV RAX, QWORD PTR [30h]
00001D7C 48 8B 00                                     MOV RAX, QWORD PTR [RAX]
00001D7F 81 78 20 20 05 93 19                         CMP DWORD PTR [RAX+20h], 19930520h
00001D86 74 33                                        JZ 1dbbh
00001D88 48 8B 44 24 30                               MOV RAX, QWORD PTR [30h]
00001D8D 48 8B 00                                     MOV RAX, QWORD PTR [RAX]
00001D90 81 78 20 21 05 93 19                         CMP DWORD PTR [RAX+20h], 19930521h
00001D97 74 22                                        JZ 1dbbh
00001D99 48 8B 44 24 30                               MOV RAX, QWORD PTR [30h]
00001D9E 48 8B 00                                     MOV RAX, QWORD PTR [RAX]
00001DA1 81 78 20 22 05 93 19                         CMP DWORD PTR [RAX+20h], 19930522h
00001DA8 74 11                                        JZ 1dbbh
00001DAA 48 8B 44 24 30                               MOV RAX, QWORD PTR [30h]
00001DAF 48 8B 00                                     MOV RAX, QWORD PTR [RAX]
00001DB2 81 78 20 00 40 99 01                         CMP DWORD PTR [RAX+20h], 1994000h
00001DB9 75 0C                                        JNZ 1dc7h
00001DBB E8 68 0E 00 00                               CALL 2c28h
00001DC0 B8 01 00 00 00                               MOV EAX, 1h
00001DC5 EB 02                                        JMP 1dc9h
00001DC7 33 C0                                        XOR EAX, EAX
00001DC9 48 83 C4 28                                  ADD RSP, 28h
00001DCD C3                                           RET 
00001DCE CC                                           INT 3 
00001DCF CC                                           INT 3 
00001DD0 48 83 EC 28                                  SUB RSP, 28h
00001DD4 48 8D 0D 75 FF FF FF                         LEA RCX,  [RIP-8bh]
00001DDB E8 4E 0E 00 00                               CALL 2c2eh
00001DE0 33 C0                                        XOR EAX, EAX
00001DE2 48 83 C4 28                                  ADD RSP, 28h
00001DE6 C3                                           RET 
00001DE7 CC                                           INT 3 
00001DE8 FF 25 8A 98 00 00                            JMP QWORD PTR [RIP+988ah]
00001DEE FF 25 7C 98 00 00                            JMP QWORD PTR [RIP+987ch]
00001DF4 FF 25 B6 97 00 00                            JMP QWORD PTR [RIP+97b6h]
00001DFA CC                                           INT 3 
00001DFB CC                                           INT 3 
00001DFC CC                                           INT 3 
00001DFD CC                                           INT 3 
00001DFE CC                                           INT 3 
00001DFF CC                                           INT 3 
00001E00 33 C0                                        XOR EAX, EAX
00001E02 C3                                           RET 
00001E03 CC                                           INT 3 
00001E04 FF 25 76 97 00 00                            JMP QWORD PTR [RIP+9776h]
00001E0A FF 25 78 97 00 00                            JMP QWORD PTR [RIP+9778h]
00001E10 FF 25 7A 97 00 00                            JMP QWORD PTR [RIP+977ah]
00001E16 FF 25 7C 97 00 00                            JMP QWORD PTR [RIP+977ch]
00001E1C CC                                           INT 3 
00001E1D CC                                           INT 3 
00001E1E CC                                           INT 3 
00001E1F CC                                           INT 3 
00001E20 48 89 54 24 10                               MOV QWORD PTR [10h], RDX
00001E25 48 89 4C 24 08                               MOV QWORD PTR [8h], RCX
00001E2A 48 83 EC 28                                  SUB RSP, 28h
00001E2E 48 8B 44 24 30                               MOV RAX, QWORD PTR [30h]
00001E33 48 63 40 3C                                  MOVSXD RAX, DWORD PTR [RAX+3ch]
00001E37 48 8B 4C 24 30                               MOV RCX, QWORD PTR [30h]
00001E3C 48 03 C8                                     ADD RCX, RAX
00001E3F 48 8B C1                                     MOV RAX, RCX
00001E42 48 89 44 24 10                               MOV QWORD PTR [10h], RAX
00001E47 C7 04 24 00 00 00 00                         MOV DWORD PTR [0h], 0h
00001E4E 48 8B 44 24 10                               MOV RAX, QWORD PTR [10h]
00001E53 0F B7 40 14                                  MOVZX EAX, WORD PTR [RAX+14h]
00001E57 48 8B 4C 24 10                               MOV RCX, QWORD PTR [10h]
00001E5C 48 8D 44 01 18                               LEA RAX,  [RCX+RAX+18h]
00001E61 48 89 44 24 08                               MOV QWORD PTR [8h], RAX
00001E66 EB 16                                        JMP 1e7eh
00001E68 8B 04 24                                     MOV EAX, DWORD PTR [0h]
00001E6B FF C0                                        INC EAX
00001E6D 89 04 24                                     MOV DWORD PTR [0h], EAX
00001E70 48 8B 44 24 08                               MOV RAX, QWORD PTR [8h]
00001E75 48 83 C0 28                                  ADD RAX, 28h
00001E79 48 89 44 24 08                               MOV QWORD PTR [8h], RAX
00001E7E 48 8B 44 24 10                               MOV RAX, QWORD PTR [10h]
00001E83 0F B7 40 06                                  MOVZX EAX, WORD PTR [RAX+6h]
00001E87 39 04 24                                     CMP DWORD PTR [0h], EAX
00001E8A 73 31                                        JNB 1ebdh
00001E8C 48 8B 44 24 08                               MOV RAX, QWORD PTR [8h]
00001E91 8B 40 0C                                     MOV EAX, DWORD PTR [RAX+ch]
00001E94 48 39 44 24 38                               CMP QWORD PTR [38h], RAX
00001E99 72 20                                        JB 1ebbh
00001E9B 48 8B 44 24 08                               MOV RAX, QWORD PTR [8h]
00001EA0 8B 40 0C                                     MOV EAX, DWORD PTR [RAX+ch]
00001EA3 48 8B 4C 24 08                               MOV RCX, QWORD PTR [8h]
00001EA8 03 41 08                                     ADD EAX, DWORD PTR [RCX+8h]
00001EAB 8B C0                                        MOV EAX, EAX
00001EAD 48 39 44 24 38                               CMP QWORD PTR [38h], RAX
00001EB2 73 07                                        JNB 1ebbh
00001EB4 48 8B 44 24 08                               MOV RAX, QWORD PTR [8h]
00001EB9 EB 04                                        JMP 1ebfh
00001EBB EB AB                                        JMP 1e68h
00001EBD 33 C0                                        XOR EAX, EAX
00001EBF 48 83 C4 28                                  ADD RSP, 28h
00001EC3 C3                                           RET 
00001EC4 CC                                           INT 3 
00001EC5 CC                                           INT 3 
00001EC6 CC                                           INT 3 
00001EC7 CC                                           INT 3 
00001EC8 CC                                           INT 3 
00001EC9 CC                                           INT 3 
00001ECA CC                                           INT 3 
00001ECB CC                                           INT 3 
00001ECC CC                                           INT 3 
00001ECD CC                                           INT 3 
00001ECE CC                                           INT 3 
00001ECF CC                                           INT 3 
00001ED0 48 89 4C 24 08                               MOV QWORD PTR [8h], RCX
00001ED5 48 83 EC 58                                  SUB RSP, 58h
00001ED9 48 8D 05 20 D5 FF FF                         LEA RAX,  [RIP-2ae0h]
00001EE0 48 89 44 24 30                               MOV QWORD PTR [30h], RAX
00001EE5 48 8B 4C 24 30                               MOV RCX, QWORD PTR [30h]
00001EEA E8 71 00 00 00                               CALL 1f60h
00001EEF 85 C0                                        TEST EAX, EAX
00001EF1 75 04                                        JNZ 1ef7h
00001EF3 33 C0                                        XOR EAX, EAX
00001EF5 EB 62                                        JMP 1f59h
00001EF7 48 8B 44 24 30                               MOV RAX, QWORD PTR [30h]
00001EFC 48 8B 4C 24 60                               MOV RCX, QWORD PTR [60h]
00001F01 48 2B C8                                     SUB RCX, RAX
00001F04 48 8B C1                                     MOV RAX, RCX
00001F07 48 89 44 24 40                               MOV QWORD PTR [40h], RAX
00001F0C 48 8B 54 24 40                               MOV RDX, QWORD PTR [40h]
00001F11 48 8B 4C 24 30                               MOV RCX, QWORD PTR [30h]
00001F16 E8 05 FF FF FF                               CALL 1e20h
00001F1B 48 89 44 24 38                               MOV QWORD PTR [38h], RAX
00001F20 48 83 7C 24 38 00                            CMP QWORD PTR [38h], 0h
00001F26 75 04                                        JNZ 1f2ch
00001F28 33 C0                                        XOR EAX, EAX
00001F2A EB 2D                                        JMP 1f59h
00001F2C 48 8B 44 24 38                               MOV RAX, QWORD PTR [38h]
00001F31 8B 40 24                                     MOV EAX, DWORD PTR [RAX+24h]
00001F34 25 00 00 00 80                               AND EAX, 80000000h
00001F39 85 C0                                        TEST EAX, EAX
00001F3B 75 0A                                        JNZ 1f47h
00001F3D C7 44 24 20 01 00 00 00                      MOV DWORD PTR [20h], 1h
00001F45 EB 08                                        JMP 1f4fh
00001F47 C7 44 24 20 00 00 00 00                      MOV DWORD PTR [20h], 0h
00001F4F 8B 44 24 20                                  MOV EAX, DWORD PTR [20h]
00001F53 EB 04                                        JMP 1f59h
00001F55 33 C0                                        XOR EAX, EAX
00001F57 EB 00                                        JMP 1f59h
00001F59 48 83 C4 58                                  ADD RSP, 58h
00001F5D C3                                           RET 
00001F5E CC                                           INT 3 
00001F5F CC                                           INT 3 
00001F60 48 89 4C 24 08                               MOV QWORD PTR [8h], RCX
00001F65 48 83 EC 28                                  SUB RSP, 28h
00001F69 48 8B 44 24 30                               MOV RAX, QWORD PTR [30h]
00001F6E 48 89 04 24                                  MOV QWORD PTR [0h], RAX
00001F72 48 8B 04 24                                  MOV RAX, QWORD PTR [0h]
00001F76 0F B7 00                                     MOVZX EAX, WORD PTR [RAX]
00001F79 3D 4D 5A 00 00                               CMP EAX, 5a4dh
00001F7E 74 04                                        JZ 1f84h
00001F80 33 C0                                        XOR EAX, EAX
00001F82 EB 4E                                        JMP 1fd2h
00001F84 48 8B 04 24                                  MOV RAX, QWORD PTR [0h]
00001F88 48 63 40 3C                                  MOVSXD RAX, DWORD PTR [RAX+3ch]
00001F8C 48 8B 0C 24                                  MOV RCX, QWORD PTR [0h]
00001F90 48 03 C8                                     ADD RCX, RAX
00001F93 48 8B C1                                     MOV RAX, RCX
00001F96 48 89 44 24 08                               MOV QWORD PTR [8h], RAX
00001F9B 48 8B 44 24 08                               MOV RAX, QWORD PTR [8h]
00001FA0 81 38 50 45 00 00                            CMP DWORD PTR [RAX], 4550h
00001FA6 74 04                                        JZ 1fach
00001FA8 33 C0                                        XOR EAX, EAX
00001FAA EB 26                                        JMP 1fd2h
00001FAC 48 8B 44 24 08                               MOV RAX, QWORD PTR [8h]
00001FB1 48 83 C0 18                                  ADD RAX, 18h
00001FB5 48 89 44 24 10                               MOV QWORD PTR [10h], RAX
00001FBA 48 8B 44 24 10                               MOV RAX, QWORD PTR [10h]
00001FBF 0F B7 00                                     MOVZX EAX, WORD PTR [RAX]
00001FC2 3D 0B 02 00 00                               CMP EAX, 20bh
00001FC7 74 04                                        JZ 1fcdh
00001FC9 33 C0                                        XOR EAX, EAX
00001FCB EB 05                                        JMP 1fd2h
00001FCD B8 01 00 00 00                               MOV EAX, 1h
00001FD2 48 83 C4 28                                  ADD RSP, 28h
00001FD6 C3                                           RET 
00001FD7 CC                                           INT 3 
00001FD8 FF 25 C2 95 00 00                            JMP QWORD PTR [RIP+95c2h]
00001FDE FF 25 C4 95 00 00                            JMP QWORD PTR [RIP+95c4h]
00001FE4 FF 25 A6 96 00 00                            JMP QWORD PTR [RIP+96a6h]
00001FEA CC                                           INT 3 
00001FEB CC                                           INT 3 
00001FEC CC                                           INT 3 
00001FED CC                                           INT 3 
00001FEE CC                                           INT 3 
00001FEF CC                                           INT 3 
00001FF0 48 83 EC 48                                  SUB RSP, 48h
00001FF4 48 C7 44 24 28 00 00 00 00                   MOV QWORD PTR [28h], 0h
00001FFD 48 B8 32 A2 DF 2D 99 2B 00 00                MOV RAX, 2b992ddfa232h
00002007 48 39 05 92 74 00 00                         CMP QWORD PTR [RIP+7492h], RAX
0000200E 74 16                                        JZ 2026h
00002010 48 8B 05 89 74 00 00                         MOV RAX, QWORD PTR [RIP+7489h]
00002017 48 F7 D0                                     NOT RAX
0000201A 48 89 05 87 74 00 00                         MOV QWORD PTR [RIP+7487h], RAX
00002021 E9 D7 00 00 00                               JMP 20fdh
00002026 48 8D 4C 24 28                               LEA RCX,  [28h]
0000202B FF 15 A7 94 00 00                            CALL QWORD PTR [RIP+94a7h]
00002031 48 8B 44 24 28                               MOV RAX, QWORD PTR [28h]
00002036 48 89 44 24 20                               MOV QWORD PTR [20h], RAX
0000203B FF 15 5F 94 00 00                            CALL QWORD PTR [RIP+945fh]
00002041 8B C0                                        MOV EAX, EAX
00002043 48 8B 4C 24 20                               MOV RCX, QWORD PTR [20h]
00002048 48 33 C8                                     XOR RCX, RAX
0000204B 48 8B C1                                     MOV RAX, RCX
0000204E 48 89 44 24 20                               MOV QWORD PTR [20h], RAX
00002053 FF 15 4F 94 00 00                            CALL QWORD PTR [RIP+944fh]
00002059 8B C0                                        MOV EAX, EAX
0000205B 48 8B 4C 24 20                               MOV RCX, QWORD PTR [20h]
00002060 48 33 C8                                     XOR RCX, RAX
00002063 48 8B C1                                     MOV RAX, RCX
00002066 48 89 44 24 20                               MOV QWORD PTR [20h], RAX
0000206B 48 8D 4C 24 30                               LEA RCX,  [30h]
00002070 FF 15 3A 94 00 00                            CALL QWORD PTR [RIP+943ah]
00002076 8B 44 24 30                                  MOV EAX, DWORD PTR [30h]
0000207A 48 C1 E0 20                                  SHL RAX, 20h
0000207E 48 33 44 24 30                               XOR RAX, QWORD PTR [30h]
00002083 48 8B 4C 24 20                               MOV RCX, QWORD PTR [20h]
00002088 48 33 C8                                     XOR RCX, RAX
0000208B 48 8B C1                                     MOV RAX, RCX
0000208E 48 89 44 24 20                               MOV QWORD PTR [20h], RAX
00002093 48 8D 44 24 20                               LEA RAX,  [20h]
00002098 48 8B 4C 24 20                               MOV RCX, QWORD PTR [20h]
0000209D 48 33 C8                                     XOR RCX, RAX
000020A0 48 8B C1                                     MOV RAX, RCX
000020A3 48 89 44 24 20                               MOV QWORD PTR [20h], RAX
000020A8 48 B8 FF FF FF FF FF FF 00 00                MOV RAX, ffffffffffffh
000020B2 48 8B 4C 24 20                               MOV RCX, QWORD PTR [20h]
000020B7 48 23 C8                                     AND RCX, RAX
000020BA 48 8B C1                                     MOV RAX, RCX
000020BD 48 89 44 24 20                               MOV QWORD PTR [20h], RAX
000020C2 48 B8 32 A2 DF 2D 99 2B 00 00                MOV RAX, 2b992ddfa232h
000020CC 48 39 44 24 20                               CMP QWORD PTR [20h], RAX
000020D1 75 0F                                        JNZ 20e2h
000020D3 48 B8 33 A2 DF 2D 99 2B 00 00                MOV RAX, 2b992ddfa233h
000020DD 48 89 44 24 20                               MOV QWORD PTR [20h], RAX
000020E2 48 8B 44 24 20                               MOV RAX, QWORD PTR [20h]
000020E7 48 89 05 B2 73 00 00                         MOV QWORD PTR [RIP+73b2h], RAX
000020EE 48 8B 44 24 20                               MOV RAX, QWORD PTR [20h]
000020F3 48 F7 D0                                     NOT RAX
000020F6 48 89 05 AB 73 00 00                         MOV QWORD PTR [RIP+73abh], RAX
000020FD 48 83 C4 48                                  ADD RSP, 48h
00002101 C3                                           RET 
00002102 CC                                           INT 3 
00002103 CC                                           INT 3 
00002104 CC                                           INT 3 
00002105 CC                                           INT 3 
00002106 CC                                           INT 3 
00002107 CC                                           INT 3 
00002108 CC                                           INT 3 
00002109 CC                                           INT 3 
0000210A CC                                           INT 3 
0000210B CC                                           INT 3 
0000210C CC                                           INT 3 
0000210D CC                                           INT 3 
0000210E CC                                           INT 3 
0000210F CC                                           INT 3 
00002110 48 89 4C 24 08                               MOV QWORD PTR [8h], RCX
00002115 33 C0                                        XOR EAX, EAX
00002117 C3                                           RET 
00002118 CC                                           INT 3 
00002119 CC                                           INT 3 
0000211A CC                                           INT 3 
0000211B CC                                           INT 3 
0000211C CC                                           INT 3 
0000211D CC                                           INT 3 
0000211E CC                                           INT 3 
0000211F CC                                           INT 3 
00002120 48 83 EC 48                                  SUB RSP, 48h
00002124 48 83 3D CC 7A 00 00 00                      CMP QWORD PTR [RIP+7acch], 0h
0000212C 74 0A                                        JZ 2138h
0000212E 48 83 3D AA 7A 00 00 00                      CMP QWORD PTR [RIP+7aaah], 0h
00002136 75 4F                                        JNZ 2187h
00002138 48 83 3D B8 7A 00 00 00                      CMP QWORD PTR [RIP+7ab8h], 0h
00002140 75 0A                                        JNZ 214ch
00002142 48 83 3D 96 7A 00 00 00                      CMP QWORD PTR [RIP+7a96h], 0h
0000214A 74 3B                                        JZ 2187h
0000214C 48 8D 05 CD 55 00 00                         LEA RAX,  [RIP+55cdh]
00002153 48 89 44 24 28                               MOV QWORD PTR [28h], RAX
00002158 48 8D 05 11 4E 00 00                         LEA RAX,  [RIP+4e11h]
0000215F 48 89 44 24 20                               MOV QWORD PTR [20h], RAX
00002164 45 33 C9                                     XOR R9D, R9D
00002167 41 B8 45 00 00 00                            MOV R8D, 45h
0000216D 48 8D 15 7C 56 00 00                         LEA RDX,  [RIP+567ch]
00002174 B9 02 00 00 00                               MOV ECX, 2h
00002179 FF 15 11 94 00 00                            CALL QWORD PTR [RIP+9411h]
0000217F 83 F8 01                                     CMP EAX, 1h
00002182 75 03                                        JNZ 2187h
00002184 CC                                           INT 3 
00002185 33 C0                                        XOR EAX, EAX
00002187 48 83 3D 69 7A 00 00 00                      CMP QWORD PTR [RIP+7a69h], 0h
0000218F 74 04                                        JZ 2195h
00002191 33 C0                                        XOR EAX, EAX
00002193 EB 67                                        JMP 21fch
00002195 C7 44 24 20 4D 00 00 00                      MOV DWORD PTR [20h], 4dh
0000219D 4C 8D 0D AC 56 00 00                         LEA R9,  [RIP+56ach]
000021A4 41 B8 02 00 00 00                            MOV R8D, 2h
000021AA BA 08 00 00 00                               MOV EDX, 8h
000021AF B9 20 00 00 00                               MOV ECX, 20h
000021B4 FF 15 86 94 00 00                            CALL QWORD PTR [RIP+9486h]
000021BA 48 89 44 24 30                               MOV QWORD PTR [30h], RAX
000021BF 48 8B 4C 24 30                               MOV RCX, QWORD PTR [30h]
000021C4 FF 15 2E 93 00 00                            CALL QWORD PTR [RIP+932eh]
000021CA 48 89 05 27 7A 00 00                         MOV QWORD PTR [RIP+7a27h], RAX
000021D1 48 8B 05 20 7A 00 00                         MOV RAX, QWORD PTR [RIP+7a20h]
000021D8 48 89 05 01 7A 00 00                         MOV QWORD PTR [RIP+7a01h], RAX
000021DF 48 83 7C 24 30 00                            CMP QWORD PTR [30h], 0h
000021E5 75 07                                        JNZ 21eeh
000021E7 B8 18 00 00 00                               MOV EAX, 18h
000021EC EB 0E                                        JMP 21fch
000021EE 48 8B 44 24 30                               MOV RAX, QWORD PTR [30h]
000021F3 48 C7 00 00 00 00 00                         MOV QWORD PTR [RAX], 0h
000021FA 33 C0                                        XOR EAX, EAX
000021FC 48 83 C4 48                                  ADD RSP, 48h
00002200 C3                                           RET 
00002201 CC                                           INT 3 
00002202 CC                                           INT 3 
00002203 CC                                           INT 3 
00002204 CC                                           INT 3 
00002205 CC                                           INT 3 
00002206 CC                                           INT 3 
00002207 CC                                           INT 3 
00002208 CC                                           INT 3 
00002209 CC                                           INT 3 
0000220A CC                                           INT 3 
0000220B CC                                           INT 3 
0000220C CC                                           INT 3 
0000220D CC                                           INT 3 
0000220E CC                                           INT 3 
0000220F CC                                           INT 3 
00002210 48 89 4C 24 08                               MOV QWORD PTR [8h], RCX
00002215 48 83 EC 48                                  SUB RSP, 48h
00002219 48 C7 44 24 30 00 00 00 00                   MOV QWORD PTR [30h], 0h
00002222 48 8B 0D CF 79 00 00                         MOV RCX, QWORD PTR [RIP+79cfh]
00002229 FF 15 61 92 00 00                            CALL QWORD PTR [RIP+9261h]
0000222F 48 89 44 24 20                               MOV QWORD PTR [20h], RAX
00002234 48 83 7C 24 20 FF                            CMP QWORD PTR [20h], -1h
0000223A 75 10                                        JNZ 224ch
0000223C 48 8B 4C 24 50                               MOV RCX, QWORD PTR [50h]
00002241 FF 15 09 94 00 00                            CALL QWORD PTR [RIP+9409h]
00002247 E9 84 00 00 00                               JMP 22d0h
0000224C B9 08 00 00 00                               MOV ECX, 8h
00002251 E8 DE 09 00 00                               CALL 2c34h
00002256 90                                           NOP 
00002257 48 8B 0D 9A 79 00 00                         MOV RCX, QWORD PTR [RIP+799ah]
0000225E FF 15 2C 92 00 00                            CALL QWORD PTR [RIP+922ch]
00002264 48 89 44 24 20                               MOV QWORD PTR [20h], RAX
00002269 48 8B 0D 70 79 00 00                         MOV RCX, QWORD PTR [RIP+7970h]
00002270 FF 15 1A 92 00 00                            CALL QWORD PTR [RIP+921ah]
00002276 48 89 44 24 28                               MOV QWORD PTR [28h], RAX
0000227B 48 8B 4C 24 50                               MOV RCX, QWORD PTR [50h]
00002280 FF 15 72 92 00 00                            CALL QWORD PTR [RIP+9272h]
00002286 4C 8D 44 24 28                               LEA R8,  [28h]
0000228B 48 8D 54 24 20                               LEA RDX,  [20h]
00002290 48 8B C8                                     MOV RCX, RAX
00002293 E8 AE 09 00 00                               CALL 2c46h
00002298 48 89 44 24 30                               MOV QWORD PTR [30h], RAX
0000229D 48 8B 4C 24 20                               MOV RCX, QWORD PTR [20h]
000022A2 FF 15 50 92 00 00                            CALL QWORD PTR [RIP+9250h]
000022A8 48 89 05 49 79 00 00                         MOV QWORD PTR [RIP+7949h], RAX
000022AF 48 8B 4C 24 28                               MOV RCX, QWORD PTR [28h]
000022B4 FF 15 3E 92 00 00                            CALL QWORD PTR [RIP+923eh]
000022BA 48 89 05 1F 79 00 00                         MOV QWORD PTR [RIP+791fh], RAX
000022C1 B9 08 00 00 00                               MOV ECX, 8h
000022C6 E8 6F 09 00 00                               CALL 2c3ah
000022CB 48 8B 44 24 30                               MOV RAX, QWORD PTR [30h]
000022D0 48 83 C4 48                                  ADD RSP, 48h
000022D4 C3                                           RET 
000022D5 CC                                           INT 3 
000022D6 CC                                           INT 3 
000022D7 CC                                           INT 3 
000022D8 CC                                           INT 3 
000022D9 CC                                           INT 3 
000022DA CC                                           INT 3 
000022DB CC                                           INT 3 
000022DC CC                                           INT 3 
000022DD CC                                           INT 3 
000022DE CC                                           INT 3 
000022DF CC                                           INT 3 
000022E0 48 89 4C 24 08                               MOV QWORD PTR [8h], RCX
000022E5 48 83 EC 38                                  SUB RSP, 38h
000022E9 48 8B 4C 24 40                               MOV RCX, QWORD PTR [40h]
000022EE E8 1D FF FF FF                               CALL 2210h
000022F3 48 85 C0                                     TEST RAX, RAX
000022F6 75 0A                                        JNZ 2302h
000022F8 C7 44 24 20 FF FF FF FF                      MOV DWORD PTR [20h], ffffffffh
00002300 EB 08                                        JMP 230ah
00002302 C7 44 24 20 00 00 00 00                      MOV DWORD PTR [20h], 0h
0000230A 8B 44 24 20                                  MOV EAX, DWORD PTR [20h]
0000230E 48 83 C4 38                                  ADD RSP, 38h
00002312 C3                                           RET 
00002313 CC                                           INT 3 
00002314 CC                                           INT 3 
00002315 CC                                           INT 3 
00002316 CC                                           INT 3 
00002317 CC                                           INT 3 
00002318 CC                                           INT 3 
00002319 CC                                           INT 3 
0000231A CC                                           INT 3 
0000231B CC                                           INT 3 
0000231C CC                                           INT 3 
0000231D CC                                           INT 3 
0000231E CC                                           INT 3 
0000231F CC                                           INT 3 
00002320 48 89 5C 24 08                               MOV QWORD PTR [8h], RBX
00002325 57                                           PUSH RDI
00002326 48 83 EC 20                                  SUB RSP, 20h
0000232A 48 8D 1D 67 5C 00 00                         LEA RBX,  [RIP+5c67h]
00002331 48 8D 3D 78 5E 00 00                         LEA RDI,  [RIP+5e78h]
00002338 48 3B DF                                     CMP RBX, RDI
0000233B 73 16                                        JNB 2353h
0000233D 0F 1F 00                                     NOP DWORD PTR [RAX]
00002340 48 8B 03                                     MOV RAX, QWORD PTR [RBX]
00002343 48 85 C0                                     TEST RAX, RAX
00002346 74 02                                        JZ 234ah
00002348 FF D0                                        CALL RAX
0000234A 48 83 C3 08                                  ADD RBX, 8h
0000234E 48 3B DF                                     CMP RBX, RDI
00002351 72 ED                                        JB 2340h
00002353 48 8B 5C 24 30                               MOV RBX, QWORD PTR [30h]
00002358 48 83 C4 20                                  ADD RSP, 20h
0000235C 5F                                           POP RDI
0000235D C3                                           RET 
0000235E CC                                           INT 3 
0000235F CC                                           INT 3 
00002360 48 89 5C 24 08                               MOV QWORD PTR [8h], RBX
00002365 57                                           PUSH RDI
00002366 48 83 EC 20                                  SUB RSP, 20h
0000236A 48 8D 1D 57 5F 00 00                         LEA RBX,  [RIP+5f57h]
00002371 48 8D 3D 68 61 00 00                         LEA RDI,  [RIP+6168h]
00002378 48 3B DF                                     CMP RBX, RDI
0000237B 73 16                                        JNB 2393h
0000237D 0F 1F 00                                     NOP DWORD PTR [RAX]
00002380 48 8B 03                                     MOV RAX, QWORD PTR [RBX]
00002383 48 85 C0                                     TEST RAX, RAX
00002386 74 02                                        JZ 238ah
00002388 FF D0                                        CALL RAX
0000238A 48 83 C3 08                                  ADD RBX, 8h
0000238E 48 3B DF                                     CMP RBX, RDI
00002391 72 ED                                        JB 2380h
00002393 48 8B 5C 24 30                               MOV RBX, QWORD PTR [30h]
00002398 48 83 C4 20                                  ADD RSP, 20h
0000239C 5F                                           POP RDI
0000239D C3                                           RET 
0000239E FF 25 14 92 00 00                            JMP QWORD PTR [RIP+9214h]
000023A4 FF 25 16 92 00 00                            JMP QWORD PTR [RIP+9216h]
000023AA FF 25 18 92 00 00                            JMP QWORD PTR [RIP+9218h]
000023B0 FF 25 1A 92 00 00                            JMP QWORD PTR [RIP+921ah]
000023B6 FF 25 1C 92 00 00                            JMP QWORD PTR [RIP+921ch]
000023BC CC                                           INT 3 
000023BD CC                                           INT 3 
000023BE CC                                           INT 3 
000023BF CC                                           INT 3 
000023C0 48 81 EC 58 04 00 00                         SUB RSP, 458h
000023C7 48 8B 05 D2 70 00 00                         MOV RAX, QWORD PTR [RIP+70d2h]
000023CE 48 33 C4                                     XOR RAX, RSP
000023D1 48 89 84 24 40 04 00 00                      MOV QWORD PTR [440h], RAX
000023D9 80 3D E0 77 00 00 00                         CMP BYTE PTR [RIP+77e0h], 0h
000023E0 0F 85 0C 01 00 00                            JNZ 24f2h
000023E6 C6 05 D3 77 00 00 01                         MOV BYTE PTR [RIP+77d3h], 1h
000023ED E8 1E 01 00 00                               CALL 2510h
000023F2 48 85 C0                                     TEST RAX, RAX
000023F5 0F 85 F9 00 00 00                            JNZ 24f4h
000023FB 48 8D 0D CE 54 00 00                         LEA RCX,  [RIP+54ceh]
00002402 FF 15 90 90 00 00                            CALL QWORD PTR [RIP+9090h]
00002408 48 85 C0                                     TEST RAX, RAX
0000240B 74 74                                        JZ 2481h
0000240D 48 8D 94 24 30 02 00 00                      LEA RDX,  [230h]
00002415 41 B8 04 01 00 00                            MOV R8D, 104h
0000241B 48 8B C8                                     MOV RCX, RAX
0000241E FF 15 3C 90 00 00                            CALL QWORD PTR [RIP+903ch]
00002424 85 C0                                        TEST EAX, EAX
00002426 74 59                                        JZ 2481h
00002428 48 8D 54 24 20                               LEA RDX,  [20h]
0000242D 48 8D 8C 24 30 02 00 00                      LEA RCX,  [230h]
00002435 41 B8 04 01 00 00                            MOV R8D, 104h
0000243B E8 30 03 00 00                               CALL 2770h
00002440 85 C0                                        TEST EAX, EAX
00002442 74 3D                                        JZ 2481h
00002444 48 8D 4C 24 20                               LEA RCX,  [20h]
00002449 33 D2                                        XOR EDX, EDX
0000244B 41 B8 00 09 00 00                            MOV R8D, 900h
00002451 FF 15 79 90 00 00                            CALL QWORD PTR [RIP+9079h]
00002457 48 85 C0                                     TEST RAX, RAX
0000245A 0F 85 94 00 00 00                            JNZ 24f4h
00002460 FF 15 7A 90 00 00                            CALL QWORD PTR [RIP+907ah]
00002466 83 F8 57                                     CMP EAX, 57h
00002469 75 16                                        JNZ 2481h
0000246B 44 8D 40 B1                                  LEA R8D,  [RAX-4fh]
0000246F 48 8D 4C 24 20                               LEA RCX,  [20h]
00002474 33 D2                                        XOR EDX, EDX
00002476 FF 15 54 90 00 00                            CALL QWORD PTR [RIP+9054h]
0000247C 48 85 C0                                     TEST RAX, RAX
0000247F 75 73                                        JNZ 24f4h
00002481 48 8D 0D 78 55 00 00                         LEA RCX,  [RIP+5578h]
00002488 33 D2                                        XOR EDX, EDX
0000248A 41 B8 00 0A 00 00                            MOV R8D, a00h
00002490 FF 15 3A 90 00 00                            CALL QWORD PTR [RIP+903ah]
00002496 48 85 C0                                     TEST RAX, RAX
00002499 75 59                                        JNZ 24f4h
0000249B FF 15 3F 90 00 00                            CALL QWORD PTR [RIP+903fh]
000024A1 83 F8 57                                     CMP EAX, 57h
000024A4 75 4C                                        JNZ 24f2h
000024A6 48 8D 94 24 30 02 00 00                      LEA RDX,  [230h]
000024AE 41 B8 04 01 00 00                            MOV R8D, 104h
000024B4 33 C9                                        XOR ECX, ECX
000024B6 FF 15 A4 8F 00 00                            CALL QWORD PTR [RIP+8fa4h]
000024BC 85 C0                                        TEST EAX, EAX
000024BE 74 32                                        JZ 24f2h
000024C0 48 8D 54 24 20                               LEA RDX,  [20h]
000024C5 48 8D 8C 24 30 02 00 00                      LEA RCX,  [230h]
000024CD 41 B8 04 01 00 00                            MOV R8D, 104h
000024D3 E8 98 02 00 00                               CALL 2770h
000024D8 85 C0                                        TEST EAX, EAX
000024DA 74 16                                        JZ 24f2h
000024DC 33 D2                                        XOR EDX, EDX
000024DE 48 8D 4C 24 20                               LEA RCX,  [20h]
000024E3 44 8D 42 08                                  LEA R8D,  [RDX+8h]
000024E7 FF 15 E3 8F 00 00                            CALL QWORD PTR [RIP+8fe3h]
000024ED 48 85 C0                                     TEST RAX, RAX
000024F0 75 02                                        JNZ 24f4h
000024F2 33 C0                                        XOR EAX, EAX
000024F4 48 8B 8C 24 40 04 00 00                      MOV RCX, QWORD PTR [440h]
000024FC 48 33 CC                                     XOR RCX, RSP
000024FF E8 8C E7 FF FF                               CALL c90h
00002504 48 81 C4 58 04 00 00                         ADD RSP, 458h
0000250B C3                                           RET 
0000250C CC                                           INT 3 
0000250D CC                                           INT 3 
0000250E CC                                           INT 3 
0000250F CC                                           INT 3 
00002510 40 57                                        PUSH RDI
00002512 48 81 EC 60 02 00 00                         SUB RSP, 260h
00002519 48 8B 05 80 6F 00 00                         MOV RAX, QWORD PTR [RIP+6f80h]
00002520 48 33 C4                                     XOR RAX, RSP
00002523 48 89 84 24 50 02 00 00                      MOV QWORD PTR [250h], RAX
0000252B 48 8D 0D BE 53 00 00                         LEA RCX,  [RIP+53beh]
00002532 33 D2                                        XOR EDX, EDX
00002534 41 B8 00 08 00 00                            MOV R8D, 800h
0000253A FF 15 90 8F 00 00                            CALL QWORD PTR [RIP+8f90h]
00002540 48 8B F8                                     MOV RDI, RAX
00002543 48 85 C0                                     TEST RAX, RAX
00002546 75 2C                                        JNZ 2574h
00002548 FF 15 92 8F 00 00                            CALL QWORD PTR [RIP+8f92h]
0000254E 83 F8 57                                     CMP EAX, 57h
00002551 75 1A                                        JNZ 256dh
00002553 48 8D 0D 96 53 00 00                         LEA RCX,  [RIP+5396h]
0000255A 45 33 C0                                     XOR R8D, R8D
0000255D 33 D2                                        XOR EDX, EDX
0000255F FF 15 6B 8F 00 00                            CALL QWORD PTR [RIP+8f6bh]
00002565 48 8B F8                                     MOV RDI, RAX
00002568 48 85 C0                                     TEST RAX, RAX
0000256B 75 07                                        JNZ 2574h
0000256D 33 C0                                        XOR EAX, EAX
0000256F E9 D9 01 00 00                               JMP 274dh
00002574 48 8D 15 95 53 00 00                         LEA RDX,  [RIP+5395h]
0000257B 48 8B CF                                     MOV RCX, RDI
0000257E 48 89 9C 24 70 02 00 00                      MOV QWORD PTR [270h], RBX
00002586 FF 15 74 8F 00 00                            CALL QWORD PTR [RIP+8f74h]
0000258C 48 8B D8                                     MOV RBX, RAX
0000258F 48 85 C0                                     TEST RAX, RAX
00002592 0F 84 AD 01 00 00                            JZ 2745h
00002598 48 8D 15 81 53 00 00                         LEA RDX,  [RIP+5381h]
0000259F 48 8B CF                                     MOV RCX, RDI
000025A2 48 89 B4 24 80 02 00 00                      MOV QWORD PTR [280h], RSI
000025AA FF 15 50 8F 00 00                            CALL QWORD PTR [RIP+8f50h]
000025B0 48 8B F0                                     MOV RSI, RAX
000025B3 48 85 C0                                     TEST RAX, RAX
000025B6 0F 84 81 01 00 00                            JZ 273dh
000025BC 48 8D 15 75 53 00 00                         LEA RDX,  [RIP+5375h]
000025C3 48 8B CF                                     MOV RCX, RDI
000025C6 48 89 AC 24 78 02 00 00                      MOV QWORD PTR [278h], RBP
000025CE FF 15 2C 8F 00 00                            CALL QWORD PTR [RIP+8f2ch]
000025D4 48 8B E8                                     MOV RBP, RAX
000025D7 48 85 C0                                     TEST RAX, RAX
000025DA 74 30                                        JZ 260ch
000025DC 48 8D 44 24 38                               LEA RAX,  [38h]
000025E1 48 8D 15 68 53 00 00                         LEA RDX,  [RIP+5368h]
000025E8 41 B9 01 00 00 00                            MOV R9D, 1h
000025EE 45 33 C0                                     XOR R8D, R8D
000025F1 48 C7 C1 02 00 00 80                         MOV RCX, 80000002h
000025F8 48 89 44 24 20                               MOV QWORD PTR [20h], RAX
000025FD FF D3                                        CALL RBX
000025FF 85 C0                                        TEST EAX, EAX
00002601 74 10                                        JZ 2613h
00002603 48 8B CF                                     MOV RCX, RDI
00002606 FF 15 5C 8E 00 00                            CALL QWORD PTR [RIP+8e5ch]
0000260C 33 C0                                        XOR EAX, EAX
0000260E E9 22 01 00 00                               JMP 2735h
00002613 48 8B 4C 24 38                               MOV RCX, QWORD PTR [38h]
00002618 48 8D 44 24 30                               LEA RAX,  [30h]
0000261D 4C 8D 4C 24 34                               LEA R9,  [34h]
00002622 48 89 44 24 28                               MOV QWORD PTR [28h], RAX
00002627 48 8D 44 24 40                               LEA RAX,  [40h]
0000262C 48 8D 15 95 53 00 00                         LEA RDX,  [RIP+5395h]
00002633 45 33 C0                                     XOR R8D, R8D
00002636 C7 44 24 30 08 02 00 00                      MOV DWORD PTR [30h], 208h
0000263E 48 89 44 24 20                               MOV QWORD PTR [20h], RAX
00002643 FF D6                                        CALL RSI
00002645 48 8B 4C 24 38                               MOV RCX, QWORD PTR [38h]
0000264A 8B D8                                        MOV EBX, EAX
0000264C FF D5                                        CALL RBP
0000264E 48 8B CF                                     MOV RCX, RDI
00002651 FF 15 11 8E 00 00                            CALL QWORD PTR [RIP+8e11h]
00002657 85 DB                                        TEST EBX, EBX
00002659 75 B1                                        JNZ 260ch
0000265B 83 7C 24 34 01                               CMP DWORD PTR [34h], 1h
00002660 75 AA                                        JNZ 260ch
00002662 8B 54 24 30                                  MOV EDX, DWORD PTR [30h]
00002666 F6 C2 01                                     TEST DL, 1h
00002669 75 A1                                        JNZ 260ch
0000266B D1 EA                                        SHR EDX, 1h
0000266D 83 FA 02                                     CMP EDX, 2h
00002670 72 9A                                        JB 260ch
00002672 41 83 C8 FF                                  OR R8D, -1h
00002676 4C 8D 4C 24 40                               LEA R9,  [40h]
0000267B 41 03 D0                                     ADD EDX, R8D
0000267E 66 41 39 1C 51                               CMP WORD PTR [R9+RDX*2], BX
00002683 4D 8D 0C 51                                  LEA R9,  [R9+RDX*2]
00002687 75 83                                        JNZ 260ch
00002689 8D 42 FF                                     LEA EAX,  [RDX-1h]
0000268C 66 83 7C 44 40 5C                            CMP WORD PTR [RSP+RAX*2+40h], 5ch
00002692 74 0B                                        JZ 269fh
00002694 B8 5C 00 00 00                               MOV EAX, 5ch
00002699 FF C2                                        INC EDX
0000269B 66 41 89 01                                  MOV WORD PTR [R9], AX
0000269F 44 2B C2                                     SUB R8D, EDX
000026A2 41 83 F8 18                                  CMP R8D, 18h
000026A6 0F 82 60 FF FF FF                            JB 260ch
000026AC 48 8D 42 17                                  LEA RAX,  [RDX+17h]
000026B0 48 3D 04 01 00 00                            CMP RAX, 104h
000026B6 0F 87 50 FF FF FF                            JNBE 260ch
000026BC 0F 10 05 DD 51 00 00                         MOVUPS XMM0, OWORD PTR [RIP+51ddh]
000026C3 8B 05 FF 51 00 00                            MOV EAX, DWORD PTR [RIP+51ffh]
000026C9 0F 10 0D E0 51 00 00                         MOVUPS XMM1, OWORD PTR [RIP+51e0h]
000026D0 48 8D 4C 24 40                               LEA RCX,  [40h]
000026D5 41 B8 00 09 00 00                            MOV R8D, 900h
000026DB 0F 11 44 54 40                               MOVUPS OWORD PTR [RSP+RDX*2+40h], XMM0
000026E0 F2 0F 10 05 D8 51 00 00                      MOVSD XMM0, QWORD PTR [RIP+51d8h]
000026E8 0F 11 4C 54 50                               MOVUPS OWORD PTR [RSP+RDX*2+50h], XMM1
000026ED F2 0F 11 44 54 60                            MOVSD QWORD PTR [RSP+RDX*2+60h], XMM0
000026F3 89 44 54 68                                  MOV DWORD PTR [RSP+RDX*2+68h], EAX
000026F7 0F B7 05 CE 51 00 00                         MOVZX EAX, WORD PTR [RIP+51ceh]
000026FE 66 89 44 54 6C                               MOV WORD PTR [RSP+RDX*2+6ch], AX
00002703 33 D2                                        XOR EDX, EDX
00002705 FF 15 C5 8D 00 00                            CALL QWORD PTR [RIP+8dc5h]
0000270B 48 8B D8                                     MOV RBX, RAX
0000270E 48 85 C0                                     TEST RAX, RAX
00002711 75 1F                                        JNZ 2732h
00002713 FF 15 C7 8D 00 00                            CALL QWORD PTR [RIP+8dc7h]
00002719 83 F8 57                                     CMP EAX, 57h
0000271C 75 14                                        JNZ 2732h
0000271E 44 8D 43 08                                  LEA R8D,  [RBX+8h]
00002722 48 8D 4C 24 40                               LEA RCX,  [40h]
00002727 33 D2                                        XOR EDX, EDX
00002729 FF 15 A1 8D 00 00                            CALL QWORD PTR [RIP+8da1h]
0000272F 48 8B D8                                     MOV RBX, RAX
00002732 48 8B C3                                     MOV RAX, RBX
00002735 48 8B AC 24 78 02 00 00                      MOV RBP, QWORD PTR [278h]
0000273D 48 8B B4 24 80 02 00 00                      MOV RSI, QWORD PTR [280h]
00002745 48 8B 9C 24 70 02 00 00                      MOV RBX, QWORD PTR [270h]
0000274D 48 8B 8C 24 50 02 00 00                      MOV RCX, QWORD PTR [250h]
00002755 48 33 CC                                     XOR RCX, RSP
00002758 E8 33 E5 FF FF                               CALL c90h
0000275D 48 81 C4 60 02 00 00                         ADD RSP, 260h
00002764 5F                                           POP RDI
00002765 C3                                           RET 
00002766 CC                                           INT 3 
00002767 CC                                           INT 3 
00002768 CC                                           INT 3 
00002769 CC                                           INT 3 
0000276A CC                                           INT 3 
0000276B CC                                           INT 3 
0000276C CC                                           INT 3 
0000276D CC                                           INT 3 
0000276E CC                                           INT 3 
0000276F CC                                           INT 3 
00002770 48 89 5C 24 20                               MOV QWORD PTR [20h], RBX
00002775 57                                           PUSH RDI
00002776 48 81 EC 70 06 00 00                         SUB RSP, 670h
0000277D 48 8B 05 1C 6D 00 00                         MOV RAX, QWORD PTR [RIP+6d1ch]
00002784 48 33 C4                                     XOR RAX, RSP
00002787 48 89 84 24 60 06 00 00                      MOV QWORD PTR [660h], RAX
0000278F 48 C7 44 24 40 00 01 00 00                   MOV QWORD PTR [40h], 100h
00002798 48 8D 44 24 60                               LEA RAX,  [60h]
0000279D 48 8B DA                                     MOV RBX, RDX
000027A0 48 89 44 24 38                               MOV QWORD PTR [38h], RAX
000027A5 48 8D 84 24 60 02 00 00                      LEA RAX,  [260h]
000027AD 49 8B F8                                     MOV RDI, R8
000027B0 48 C7 44 24 30 00 01 00 00                   MOV QWORD PTR [30h], 100h
000027B9 48 89 44 24 28                               MOV QWORD PTR [28h], RAX
000027BE 4C 8D 8C 24 60 04 00 00                      LEA R9,  [460h]
000027C6 48 8D 54 24 50                               LEA RDX,  [50h]
000027CB 41 B8 03 00 00 00                            MOV R8D, 3h
000027D1 48 C7 44 24 20 00 01 00 00                   MOV QWORD PTR [20h], 100h
000027DA E8 79 04 00 00                               CALL 2c58h
000027DF 85 C0                                        TEST EAX, EAX
000027E1 74 04                                        JZ 27e7h
000027E3 33 C0                                        XOR EAX, EAX
000027E5 EB 6D                                        JMP 2854h
000027E7 4C 8D 05 FA 51 00 00                         LEA R8,  [RIP+51fah]
000027EE 48 8D 8C 24 60 02 00 00                      LEA RCX,  [260h]
000027F6 BA 09 00 00 00                               MOV EDX, 9h
000027FB E8 4C 04 00 00                               CALL 2c4ch
00002800 85 C0                                        TEST EAX, EAX
00002802 75 DF                                        JNZ 27e3h
00002804 4C 8D 05 D5 51 00 00                         LEA R8,  [RIP+51d5h]
0000280B 8D 50 04                                     LEA EDX,  [RAX+4h]
0000280E 48 8D 4C 24 60                               LEA RCX,  [60h]
00002813 E8 34 04 00 00                               CALL 2c4ch
00002818 85 C0                                        TEST EAX, EAX
0000281A 75 C7                                        JNZ 27e3h
0000281C 48 8D 44 24 60                               LEA RAX,  [60h]
00002821 4C 8D 8C 24 60 04 00 00                      LEA R9,  [460h]
00002829 4C 8D 44 24 50                               LEA R8,  [50h]
0000282E 48 89 44 24 28                               MOV QWORD PTR [28h], RAX
00002833 48 8D 84 24 60 02 00 00                      LEA RAX,  [260h]
0000283B 48 8B D7                                     MOV RDX, RDI
0000283E 48 8B CB                                     MOV RCX, RBX
00002841 48 89 44 24 20                               MOV QWORD PTR [20h], RAX
00002846 E8 07 04 00 00                               CALL 2c52h
0000284B 33 C9                                        XOR ECX, ECX
0000284D 85 C0                                        TEST EAX, EAX
0000284F 0F 94 C1                                     SETZ CL
00002852 8B C1                                        MOV EAX, ECX
00002854 48 8B 8C 24 60 06 00 00                      MOV RCX, QWORD PTR [660h]
0000285C 48 33 CC                                     XOR RCX, RSP
0000285F E8 2C E4 FF FF                               CALL c90h
00002864 48 8B 9C 24 98 06 00 00                      MOV RBX, QWORD PTR [698h]
0000286C 48 81 C4 70 06 00 00                         ADD RSP, 670h
00002873 5F                                           POP RDI
00002874 C3                                           RET 
00002875 CC                                           INT 3 
00002876 CC                                           INT 3 
00002877 CC                                           INT 3 
00002878 CC                                           INT 3 
00002879 CC                                           INT 3 
0000287A CC                                           INT 3 
0000287B CC                                           INT 3 
0000287C CC                                           INT 3 
0000287D CC                                           INT 3 
0000287E CC                                           INT 3 
0000287F CC                                           INT 3 
00002880 44 89 44 24 18                               MOV DWORD PTR [18h], R8D
00002885 55                                           PUSH RBP
00002886 56                                           PUSH RSI
00002887 41 54                                        PUSH R12
00002889 41 55                                        PUSH R13
0000288B 41 56                                        PUSH R14
0000288D 48 8D 6C 24 D9                               LEA RBP,  [ffffffffffffffd9h]
00002892 48 81 EC C0 00 00 00                         SUB RSP, c0h
00002899 45 33 F6                                     XOR R14D, R14D
0000289C 48 8D 71 FF                                  LEA RSI,  [RCX-1h]
000028A0 4C 8B EA                                     MOV R13, RDX
000028A3 45 89 31                                     MOV DWORD PTR [R9], R14D
000028A6 66 44 89 32                                  MOV WORD PTR [RDX], R14W
000028AA 48 8D 55 DF                                  LEA RDX,  [RBP-21h]
000028AE 45 8D 46 30                                  LEA R8D,  [R14+30h]
000028B2 48 8B CE                                     MOV RCX, RSI
000028B5 4D 8B E1                                     MOV R12, R9
000028B8 FF 15 B2 8B 00 00                            CALL QWORD PTR [RIP+8bb2h]
000028BE 48 85 C0                                     TEST RAX, RAX
000028C1 75 12                                        JNZ 28d5h
000028C3 33 C0                                        XOR EAX, EAX
000028C5 48 81 C4 C0 00 00 00                         ADD RSP, c0h
000028CC 41 5E                                        POP R14
000028CE 41 5D                                        POP R13
000028D0 41 5C                                        POP R12
000028D2 5E                                           POP RSI
000028D3 5D                                           POP RBP
000028D4 C3                                           RET 
000028D5 44 8B 45 7F                                  MOV R8D, DWORD PTR [RBP+7fh]
000028D9 48 8B 55 77                                  MOV RDX, QWORD PTR [RBP+77h]
000028DD 48 8B 4D E7                                  MOV RCX, QWORD PTR [RBP-19h]
000028E1 FF 15 79 8B 00 00                            CALL QWORD PTR [RIP+8b79h]
000028E7 85 C0                                        TEST EAX, EAX
000028E9 74 D8                                        JZ 28c3h
000028EB 4C 8B 45 E7                                  MOV R8, QWORD PTR [RBP-19h]
000028EF B8 4D 5A 00 00                               MOV EAX, 5a4dh
000028F4 66 41 39 00                                  CMP WORD PTR [R8], AX
000028F8 75 C9                                        JNZ 28c3h
000028FA 49 63 40 3C                                  MOVSXD RAX, DWORD PTR [R8+3ch]
000028FE 85 C0                                        TEST EAX, EAX
00002900 7E C1                                        JLE 28c3h
00002902 41 81 3C 00 50 45 00 00                      CMP DWORD PTR [R8+RAX], 4550h
0000290A 49 8D 0C 00                                  LEA RCX,  [R8+RAX]
0000290E 75 B3                                        JNZ 28c3h
00002910 44 0F B7 49 14                               MOVZX R9D, WORD PTR [RCX+14h]
00002915 0F B7 51 06                                  MOVZX EDX, WORD PTR [RCX+6h]
00002919 48 89 9C 24 B8 00 00 00                      MOV QWORD PTR [b8h], RBX
00002921 4C 03 C9                                     ADD R9, RCX
00002924 41 2B F0                                     SUB ESI, R8D
00002927 48 89 BC 24 B0 00 00 00                      MOV QWORD PTR [b0h], RDI
0000292F 41 8B FE                                     MOV EDI, R14D
00002932 41 8B DE                                     MOV EBX, R14D
00002935 85 D2                                        TEST EDX, EDX
00002937 74 27                                        JZ 2960h
00002939 0F 1F 80 00 00 00 00                         NOP DWORD PTR [RAX+0h]
00002940 8B C3                                        MOV EAX, EBX
00002942 48 8D 0C 80                                  LEA RCX,  [RAX+RAX*4]
00002946 41 8B 44 C9 24                               MOV EAX, DWORD PTR [R9+RCX*8+24h]
0000294B 3B F0                                        CMP ESI, EAX
0000294D 72 0B                                        JB 295ah
0000294F 8B FE                                        MOV EDI, ESI
00002951 2B F8                                        SUB EDI, EAX
00002953 41 3B 74 C9 20                               CMP ESI, DWORD PTR [R9+RCX*8+20h]
00002958 72 06                                        JB 2960h
0000295A FF C3                                        INC EBX
0000295C 3B DA                                        CMP EBX, EDX
0000295E 72 E0                                        JB 2940h
00002960 3B DA                                        CMP EBX, EDX
00002962 74 78                                        JZ 29dch
00002964 FF C3                                        INC EBX
00002966 44 38 35 54 72 00 00                         CMP BYTE PTR [RIP+7254h], R14B
0000296D 75 23                                        JNZ 2992h
0000296F 4C 39 35 42 72 00 00                         CMP QWORD PTR [RIP+7242h], R14
00002976 75 64                                        JNZ 29dch
00002978 E8 43 FA FF FF                               CALL 23c0h
0000297D 48 89 05 34 72 00 00                         MOV QWORD PTR [RIP+7234h], RAX
00002984 48 85 C0                                     TEST RAX, RAX
00002987 74 53                                        JZ 29dch
00002989 C6 05 31 72 00 00 01                         MOV BYTE PTR [RIP+7231h], 1h
00002990 EB 07                                        JMP 2999h
00002992 48 8B 05 1F 72 00 00                         MOV RAX, QWORD PTR [RIP+721fh]
00002999 48 8D 15 78 50 00 00                         LEA RDX,  [RIP+5078h]
000029A0 48 8B C8                                     MOV RCX, RAX
000029A3 FF 15 57 8B 00 00                            CALL QWORD PTR [RIP+8b57h]
000029A9 48 85 C0                                     TEST RAX, RAX
000029AC 74 2E                                        JZ 29dch
000029AE 48 8D 4D BF                                  LEA RCX,  [RBP-41h]
000029B2 45 33 C9                                     XOR R9D, R9D
000029B5 45 33 C0                                     XOR R8D, R8D
000029B8 48 89 4C 24 38                               MOV QWORD PTR [38h], RCX
000029BD 48 8D 4D D7                                  LEA RCX,  [RBP-29h]
000029C1 4C 89 74 24 30                               MOV QWORD PTR [30h], R14
000029C6 4C 89 74 24 28                               MOV QWORD PTR [28h], R14
000029CB 48 89 4C 24 20                               MOV QWORD PTR [20h], RCX
000029D0 48 8B 4D 77                                  MOV RCX, QWORD PTR [RBP+77h]
000029D4 33 D2                                        XOR EDX, EDX
000029D6 FF D0                                        CALL RAX
000029D8 85 C0                                        TEST EAX, EAX
000029DA 75 07                                        JNZ 29e3h
000029DC 33 C0                                        XOR EAX, EAX
000029DE E9 07 02 00 00                               JMP 2beah
000029E3 48 8B 4D BF                                  MOV RCX, QWORD PTR [RBP-41h]
000029E7 48 8B 01                                     MOV RAX, QWORD PTR [RCX]
000029EA FF 10                                        CALL QWORD PTR [RAX]
000029EC 3D 41 91 32 01                               CMP EAX, 1329141h
000029F1 0F 85 E6 01 00 00                            JNZ 2bddh
000029F7 48 8B 4D BF                                  MOV RCX, QWORD PTR [RBP-41h]
000029FB 4C 8D 4D CF                                  LEA R9,  [RBP-31h]
000029FF 4C 8D 05 26 50 00 00                         LEA R8,  [RIP+5026h]
00002A06 48 8B 01                                     MOV RAX, QWORD PTR [RCX]
00002A09 33 D2                                        XOR EDX, EDX
00002A0B FF 50 38                                     CALL QWORD PTR [RAX+38h]
00002A0E 85 C0                                        TEST EAX, EAX
00002A10 0F 84 C7 01 00 00                            JZ 2bddh
00002A16 48 8B 4D CF                                  MOV RCX, QWORD PTR [RBP-31h]
00002A1A 4C 89 74 24 30                               MOV QWORD PTR [30h], R14
00002A1F 4C 8D 4D AF                                  LEA R9,  [RBP-51h]
00002A23 48 8B 01                                     MOV RAX, QWORD PTR [RCX]
00002A26 44 8B C7                                     MOV R8D, EDI
00002A29 0F B7 D3                                     MOVZX EDX, BX
00002A2C 4C 89 74 24 28                               MOV QWORD PTR [28h], R14
00002A31 4C 89 74 24 20                               MOV QWORD PTR [20h], R14
00002A36 FF 50 40                                     CALL QWORD PTR [RAX+40h]
00002A39 85 C0                                        TEST EAX, EAX
00002A3B 0F 84 92 01 00 00                            JZ 2bd3h
00002A41 48 8B 4D AF                                  MOV RCX, QWORD PTR [RBP-51h]
00002A45 4C 89 75 A7                                  MOV QWORD PTR [RBP-59h], R14
00002A49 48 8D 55 A7                                  LEA RDX,  [RBP-59h]
00002A4D 48 8B 01                                     MOV RAX, QWORD PTR [RCX]
00002A50 FF 90                                        NOP 
00002A52 D0 00                                        ROL BYTE PTR [RAX], 1h
00002A54 00 00                                        ADD BYTE PTR [RAX], AL
00002A56 84 C0                                        TEST AL, AL
00002A58 0F 84 68 01 00 00                            JZ 2bc6h
00002A5E 48 8B 4D A7                                  MOV RCX, QWORD PTR [RBP-59h]
00002A62 48 85 C9                                     TEST RCX, RCX
00002A65 0F 84 5B 01 00 00                            JZ 2bc6h
00002A6B 48 8B 01                                     MOV RAX, QWORD PTR [RCX]
00002A6E 49 8B F6                                     MOV RSI, R14
00002A71 FF 50 10                                     CALL QWORD PTR [RAX+10h]
00002A74 85 C0                                        TEST EAX, EAX
00002A76 0F 84 2D 01 00 00                            JZ 2ba9h
00002A7C 0F 1F 40 00                                  NOP DWORD PTR [RAX+0h]
00002A80 48 8B 4D A7                                  MOV RCX, QWORD PTR [RBP-59h]
00002A84 48 8D 55 5F                                  LEA RDX,  [RBP+5fh]
00002A88 4C 89 74 24 30                               MOV QWORD PTR [30h], R14
00002A8D 48 8B 01                                     MOV RAX, QWORD PTR [RCX]
00002A90 48 89 54 24 28                               MOV QWORD PTR [28h], RDX
00002A95 48 8D 55 C7                                  LEA RDX,  [RBP-39h]
00002A99 48 89 54 24 20                               MOV QWORD PTR [20h], RDX
00002A9E 4C 8D 4D 57                                  LEA R9,  [RBP+57h]
00002AA2 4C 8D 45 6F                                  LEA R8,  [RBP+6fh]
00002AA6 33 D2                                        XOR EDX, EDX
00002AA8 FF 50 18                                     CALL QWORD PTR [RAX+18h]
00002AAB 84 C0                                        TEST AL, AL
00002AAD 0F 84 0A 01 00 00                            JZ 2bbdh
00002AB3 0F B7 45 57                                  MOVZX EAX, WORD PTR [RBP+57h]
00002AB7 3B C3                                        CMP EAX, EBX
00002AB9 75 0E                                        JNZ 2ac9h
00002ABB 8B 4D 6F                                     MOV ECX, DWORD PTR [RBP+6fh]
00002ABE 3B CF                                        CMP ECX, EDI
00002AC0 77 07                                        JNBE 2ac9h
00002AC2 03 4D C7                                     ADD ECX, DWORD PTR [RBP-39h]
00002AC5 3B F9                                        CMP EDI, ECX
00002AC7 72 13                                        JB 2adch
00002AC9 48 8B 4D A7                                  MOV RCX, QWORD PTR [RBP-59h]
00002ACD 48 8B 01                                     MOV RAX, QWORD PTR [RCX]
00002AD0 FF 50 10                                     CALL QWORD PTR [RAX+10h]
00002AD3 85 C0                                        TEST EAX, EAX
00002AD5 75 A9                                        JNZ 2a80h
00002AD7 E9 CD 00 00 00                               JMP 2ba9h
00002ADC 8B 5D 5F                                     MOV EBX, DWORD PTR [RBP+5fh]
00002ADF 48 B9 FD FF FF FF FF FF FF 1F                MOV RCX, 1ffffffffffffffdh
00002AE9 48 8D 43 FF                                  LEA RAX,  [RBX-1h]
00002AED 48 3B C1                                     CMP RAX, RCX
00002AF0 0F 87 C7 00 00 00                            JNBE 2bbdh
00002AF6 48 8D 1C DD 00 00 00 00                      LEA RBX,  [RBP+RBX*8+0h]
00002AFE FF 15 74 89 00 00                            CALL QWORD PTR [RIP+8974h]
00002B04 4C 8B C3                                     MOV R8, RBX
00002B07 48 8B C8                                     MOV RCX, RAX
00002B0A 33 D2                                        XOR EDX, EDX
00002B0C FF 15 76 89 00 00                            CALL QWORD PTR [RIP+8976h]
00002B12 48 8B F0                                     MOV RSI, RAX
00002B15 48 85 C0                                     TEST RAX, RAX
00002B18 0F 84 9F 00 00 00                            JZ 2bbdh
00002B1E 48 8B 4D A7                                  MOV RCX, QWORD PTR [RBP-59h]
00002B22 48 89 44 24 30                               MOV QWORD PTR [30h], RAX
00002B27 48 8D 45 5F                                  LEA RAX,  [RBP+5fh]
00002B2B 4C 8B 11                                     MOV R10, QWORD PTR [RCX]
00002B2E 48 89 44 24 28                               MOV QWORD PTR [28h], RAX
00002B33 48 8D 55 B7                                  LEA RDX,  [RBP-49h]
00002B37 45 33 C9                                     XOR R9D, R9D
00002B3A 45 33 C0                                     XOR R8D, R8D
00002B3D 4C 89 74 24 20                               MOV QWORD PTR [20h], R14
00002B42 41 FF 52 18                                  CALL QWORD PTR [R10+18h]
00002B46 84 C0                                        TEST AL, AL
00002B48 74 5F                                        JZ 2ba9h
00002B4A 2B 7D 6F                                     SUB EDI, DWORD PTR [RBP+6fh]
00002B4D 3B 3E                                        CMP EDI, DWORD PTR [RSI]
00002B4F 72 58                                        JB 2ba9h
00002B51 8B 55 5F                                     MOV EDX, DWORD PTR [RBP+5fh]
00002B54 BB 01 00 00 00                               MOV EBX, 1h
00002B59 8B CB                                        MOV ECX, EBX
00002B5B 3B D3                                        CMP EDX, EBX
00002B5D 76 0E                                        JBE 2b6dh
00002B5F 90                                           NOP 
00002B60 8B C1                                        MOV EAX, ECX
00002B62 3B 3C C6                                     CMP EDI, DWORD PTR [RSI+RAX*8]
00002B65 72 06                                        JB 2b6dh
00002B67 FF C1                                        INC ECX
00002B69 3B CA                                        CMP ECX, EDX
00002B6B 72 F3                                        JB 2b60h
00002B6D 8B 55 B7                                     MOV EDX, DWORD PTR [RBP-49h]
00002B70 8D 41 FF                                     LEA EAX,  [RCX-1h]
00002B73 48 8B 4D AF                                  MOV RCX, QWORD PTR [RBP-51h]
00002B77 8B 44 C6 04                                  MOV EAX, DWORD PTR [RSI+RAX*8+4h]
00002B7B 4C 89 74 24 30                               MOV QWORD PTR [30h], R14
00002B80 4C 8D 4D 67                                  LEA R9,  [RBP+67h]
00002B84 25 FF FF FF 00                               AND EAX, ffffffh
00002B89 4D 8B C5                                     MOV R8, R13
00002B8C 4C 89 74 24 28                               MOV QWORD PTR [28h], R14
00002B91 41 89 04 24                                  MOV DWORD PTR [0h], EAX
00002B95 48 8B 01                                     MOV RAX, QWORD PTR [RCX]
00002B98 4C 89 74 24 20                               MOV QWORD PTR [20h], R14
00002B9D FF 90                                        NOP 
00002B9F E0 00                                        LOOPNZ 2ba1h
00002BA1 00 00                                        ADD BYTE PTR [RAX], AL
00002BA3 84 C0                                        TEST AL, AL
00002BA5 44 0F 45 F3                                  CMOVNZ R14D, EBX
00002BA9 FF 15 C9 88 00 00                            CALL QWORD PTR [RIP+88c9h]
00002BAF 4C 8B C6                                     MOV R8, RSI
00002BB2 33 D2                                        XOR EDX, EDX
00002BB4 48 8B C8                                     MOV RCX, RAX
00002BB7 FF 15 C3 88 00 00                            CALL QWORD PTR [RIP+88c3h]
00002BBD 48 8B 4D A7                                  MOV RCX, QWORD PTR [RBP-59h]
00002BC1 48 8B 01                                     MOV RAX, QWORD PTR [RCX]
00002BC4 FF 10                                        CALL QWORD PTR [RAX]
00002BC6 48 8B 4D AF                                  MOV RCX, QWORD PTR [RBP-51h]
00002BCA 48 8B 11                                     MOV RDX, QWORD PTR [RCX]
00002BCD FF 92 80 00 00 00                            CALL QWORD PTR [RDX+80h]
00002BD3 48 8B 4D CF                                  MOV RCX, QWORD PTR [RBP-31h]
00002BD7 48 8B 11                                     MOV RDX, QWORD PTR [RCX]
00002BDA FF 52 70                                     CALL QWORD PTR [RDX+70h]
00002BDD 48 8B 4D BF                                  MOV RCX, QWORD PTR [RBP-41h]
00002BE1 48 8B 11                                     MOV RDX, QWORD PTR [RCX]
00002BE4 FF 52 58                                     CALL QWORD PTR [RDX+58h]
00002BE7 41 8B C6                                     MOV EAX, R14D
00002BEA 48 8B 9C 24 B8 00 00 00                      MOV RBX, QWORD PTR [b8h]
00002BF2 48 8B BC 24 B0 00 00 00                      MOV RDI, QWORD PTR [b0h]
00002BFA 48 81 C4 C0 00 00 00                         ADD RSP, c0h
00002C01 41 5E                                        POP R14
00002C03 41 5D                                        POP R13
00002C05 41 5C                                        POP R12
00002C07 5E                                           POP RSI
00002C08 5D                                           POP RBP
00002C09 C3                                           RET 
00002C0A FF 25 E8 89 00 00                            JMP QWORD PTR [RIP+89e8h]
00002C10 FF 25 EA 89 00 00                            JMP QWORD PTR [RIP+89eah]
00002C16 FF 25 EC 89 00 00                            JMP QWORD PTR [RIP+89ech]
00002C1C FF 25 EE 89 00 00                            JMP QWORD PTR [RIP+89eeh]
00002C22 FF 25 F0 89 00 00                            JMP QWORD PTR [RIP+89f0h]
00002C28 FF 25 F2 89 00 00                            JMP QWORD PTR [RIP+89f2h]
00002C2E FF 25 F4 89 00 00                            JMP QWORD PTR [RIP+89f4h]
00002C34 FF 25 F6 89 00 00                            JMP QWORD PTR [RIP+89f6h]
00002C3A FF 25 F8 89 00 00                            JMP QWORD PTR [RIP+89f8h]
00002C40 FF 25 FA 89 00 00                            JMP QWORD PTR [RIP+89fah]
00002C46 FF 25 FC 89 00 00                            JMP QWORD PTR [RIP+89fch]
00002C4C FF 25 06 8A 00 00                            JMP QWORD PTR [RIP+8a06h]
00002C52 FF 25 08 8A 00 00                            JMP QWORD PTR [RIP+8a08h]
00002C58 FF 25 0A 8A 00 00                            JMP QWORD PTR [RIP+8a0ah]
00002C5E FF 25 94 88 00 00                            JMP QWORD PTR [RIP+8894h]
00002C64 FF 25 86 88 00 00                            JMP QWORD PTR [RIP+8886h]
00002C6A FF 25 78 88 00 00                            JMP QWORD PTR [RIP+8878h]
00002C70 FF 25 6A 88 00 00                            JMP QWORD PTR [RIP+886ah]
00002C76 FF 25 84 88 00 00                            JMP QWORD PTR [RIP+8884h]
00002C7C FF 25 4E 88 00 00                            JMP QWORD PTR [RIP+884eh]
00002C82 FF 25 40 88 00 00                            JMP QWORD PTR [RIP+8840h]
00002C88 FF 25 32 88 00 00                            JMP QWORD PTR [RIP+8832h]
00002C8E FF 25 24 88 00 00                            JMP QWORD PTR [RIP+8824h]
00002C94 FF 25 16 88 00 00                            JMP QWORD PTR [RIP+8816h]
00002C9A FF 25 08 88 00 00                            JMP QWORD PTR [RIP+8808h]
00002CA0 FF 25 FA 87 00 00                            JMP QWORD PTR [RIP+87fah]
00002CA6 FF 25 2C 88 00 00                            JMP QWORD PTR [RIP+882ch]
00002CAC FF 25 DE 87 00 00                            JMP QWORD PTR [RIP+87deh]
00002CB2 FF 25 D0 87 00 00                            JMP QWORD PTR [RIP+87d0h]
00002CB8 FF 25 C2 87 00 00                            JMP QWORD PTR [RIP+87c2h]
00002CBE FF 25 B4 87 00 00                            JMP QWORD PTR [RIP+87b4h]
00002CC4 FF 25 A6 87 00 00                            JMP QWORD PTR [RIP+87a6h]
00002CCA FF 25 98 87 00 00                            JMP QWORD PTR [RIP+8798h]
00002CD0 FF 25 8A 87 00 00                            JMP QWORD PTR [RIP+878ah]
00002CD6 FF 25 BC 87 00 00                            JMP QWORD PTR [RIP+87bch]
00002CDC CC                                           INT 3 
00002CDD CC                                           INT 3 
00002CDE CC                                           INT 3 
00002CDF CC                                           INT 3 
00002CE0 CC                                           INT 3 
00002CE1 CC                                           INT 3 
00002CE2 CC                                           INT 3 
00002CE3 CC                                           INT 3 
00002CE4 CC                                           INT 3 
00002CE5 CC                                           INT 3 
00002CE6 CC                                           INT 3 
00002CE7 CC                                           INT 3 
00002CE8 CC                                           INT 3 
00002CE9 CC                                           INT 3 
00002CEA CC                                           INT 3 
00002CEB CC                                           INT 3 
00002CEC CC                                           INT 3 
00002CED CC                                           INT 3 
00002CEE CC                                           INT 3 
00002CEF CC                                           INT 3 
00002CF0 CC                                           INT 3 
00002CF1 CC                                           INT 3 
00002CF2 CC                                           INT 3 
00002CF3 CC                                           INT 3 
00002CF4 CC                                           INT 3 
00002CF5 CC                                           INT 3 
00002CF6 CC                                           INT 3 
00002CF7 CC                                           INT 3 
00002CF8 CC                                           INT 3 
00002CF9 CC                                           INT 3 
00002CFA CC                                           INT 3 
00002CFB CC                                           INT 3 
00002CFC CC                                           INT 3 
00002CFD CC                                           INT 3 
00002CFE CC                                           INT 3 
00002CFF CC                                           INT 3 
00002D00 CC                                           INT 3 
00002D01 CC                                           INT 3 
00002D02 CC                                           INT 3 
00002D03 CC                                           INT 3 
00002D04 CC                                           INT 3 
00002D05 CC                                           INT 3 
00002D06 CC                                           INT 3 
00002D07 CC                                           INT 3 
00002D08 CC                                           INT 3 
00002D09 CC                                           INT 3 
00002D0A CC                                           INT 3 
00002D0B CC                                           INT 3 
00002D0C CC                                           INT 3 
00002D0D CC                                           INT 3 
00002D0E CC                                           INT 3 
00002D0F CC                                           INT 3 
00002D10 CC                                           INT 3 
00002D11 CC                                           INT 3 
00002D12 CC                                           INT 3 
00002D13 CC                                           INT 3 
00002D14 CC                                           INT 3 
00002D15 CC                                           INT 3 
00002D16 CC                                           INT 3 
00002D17 CC                                           INT 3 
00002D18 CC                                           INT 3 
00002D19 CC                                           INT 3 
00002D1A CC                                           INT 3 
00002D1B CC                                           INT 3 
00002D1C CC                                           INT 3 
00002D1D CC                                           INT 3 
00002D1E CC                                           INT 3 
00002D1F CC                                           INT 3 
00002D20 CC                                           INT 3 
00002D21 CC                                           INT 3 
00002D22 CC                                           INT 3 
00002D23 CC                                           INT 3 
00002D24 CC                                           INT 3 
00002D25 CC                                           INT 3 
00002D26 CC                                           INT 3 
00002D27 CC                                           INT 3 
00002D28 CC                                           INT 3 
00002D29 CC                                           INT 3 
00002D2A CC                                           INT 3 
00002D2B CC                                           INT 3 
00002D2C CC                                           INT 3 
00002D2D CC                                           INT 3 
00002D2E CC                                           INT 3 
00002D2F CC                                           INT 3 
00002D30 CC                                           INT 3 
00002D31 CC                                           INT 3 
00002D32 CC                                           INT 3 
00002D33 CC                                           INT 3 
00002D34 CC                                           INT 3 
00002D35 CC                                           INT 3 
00002D36 CC                                           INT 3 
00002D37 CC                                           INT 3 
00002D38 CC                                           INT 3 
00002D39 CC                                           INT 3 
00002D3A CC                                           INT 3 
00002D3B CC                                           INT 3 
00002D3C CC                                           INT 3 
00002D3D CC                                           INT 3 
00002D3E CC                                           INT 3 
00002D3F CC                                           INT 3 
00002D40 CC                                           INT 3 
00002D41 CC                                           INT 3 
00002D42 CC                                           INT 3 
00002D43 CC                                           INT 3 
00002D44 CC                                           INT 3 
00002D45 CC                                           INT 3 
00002D46 CC                                           INT 3 
00002D47 CC                                           INT 3 
00002D48 CC                                           INT 3 
00002D49 CC                                           INT 3 
00002D4A CC                                           INT 3 
00002D4B CC                                           INT 3 
00002D4C CC                                           INT 3 
00002D4D CC                                           INT 3 
00002D4E CC                                           INT 3 
00002D4F CC                                           INT 3 
00002D50 CC                                           INT 3 
00002D51 CC                                           INT 3 
00002D52 CC                                           INT 3 
00002D53 CC                                           INT 3 
00002D54 CC                                           INT 3 
00002D55 CC                                           INT 3 
00002D56 CC                                           INT 3 
00002D57 CC                                           INT 3 
00002D58 CC                                           INT 3 
00002D59 CC                                           INT 3 
00002D5A CC                                           INT 3 
00002D5B CC                                           INT 3 
00002D5C CC                                           INT 3 
00002D5D CC                                           INT 3 
00002D5E CC                                           INT 3 
00002D5F CC                                           INT 3 
00002D60 CC                                           INT 3 
00002D61 CC                                           INT 3 
00002D62 CC                                           INT 3 
00002D63 CC                                           INT 3 
00002D64 CC                                           INT 3 
00002D65 CC                                           INT 3 
00002D66 CC                                           INT 3 
00002D67 CC                                           INT 3 
00002D68 CC                                           INT 3 
00002D69 CC                                           INT 3 
00002D6A CC                                           INT 3 
00002D6B CC                                           INT 3 
00002D6C CC                                           INT 3 
00002D6D CC                                           INT 3 
00002D6E CC                                           INT 3 
00002D6F CC                                           INT 3 
00002D70 CC                                           INT 3 
00002D71 CC                                           INT 3 
00002D72 CC                                           INT 3 
00002D73 CC                                           INT 3 
00002D74 CC                                           INT 3 
00002D75 CC                                           INT 3 
00002D76 CC                                           INT 3 
00002D77 CC                                           INT 3 
00002D78 CC                                           INT 3 
00002D79 CC                                           INT 3 
00002D7A CC                                           INT 3 
00002D7B CC                                           INT 3 
00002D7C CC                                           INT 3 
00002D7D CC                                           INT 3 
00002D7E CC                                           INT 3 
00002D7F CC                                           INT 3 
00002D80 CC                                           INT 3 
00002D81 CC                                           INT 3 
00002D82 CC                                           INT 3 
00002D83 CC                                           INT 3 
00002D84 CC                                           INT 3 
00002D85 CC                                           INT 3 
00002D86 CC                                           INT 3 
00002D87 CC                                           INT 3 
00002D88 CC                                           INT 3 
00002D89 CC                                           INT 3 
00002D8A CC                                           INT 3 
00002D8B CC                                           INT 3 
00002D8C CC                                           INT 3 
00002D8D CC                                           INT 3 
00002D8E CC                                           INT 3 
00002D8F CC                                           INT 3 
00002D90 CC                                           INT 3 
00002D91 CC                                           INT 3 
00002D92 CC                                           INT 3 
00002D93 CC                                           INT 3 
00002D94 CC                                           INT 3 
00002D95 CC                                           INT 3 
00002D96 CC                                           INT 3 
00002D97 CC                                           INT 3 
00002D98 CC                                           INT 3 
00002D99 CC                                           INT 3 
00002D9A CC                                           INT 3 
00002D9B CC                                           INT 3 
00002D9C CC                                           INT 3 
00002D9D CC                                           INT 3 
00002D9E CC                                           INT 3 
00002D9F CC                                           INT 3 
00002DA0 CC                                           INT 3 
00002DA1 CC                                           INT 3 
00002DA2 CC                                           INT 3 
00002DA3 CC                                           INT 3 
00002DA4 CC                                           INT 3 
00002DA5 CC                                           INT 3 
00002DA6 CC                                           INT 3 
00002DA7 CC                                           INT 3 
00002DA8 CC                                           INT 3 
00002DA9 CC                                           INT 3 
00002DAA CC                                           INT 3 
00002DAB CC                                           INT 3 
00002DAC CC                                           INT 3 
00002DAD CC                                           INT 3 
00002DAE CC                                           INT 3 
00002DAF CC                                           INT 3 
00002DB0 CC                                           INT 3 
00002DB1 CC                                           INT 3 
00002DB2 CC                                           INT 3 
00002DB3 CC                                           INT 3 
00002DB4 CC                                           INT 3 
00002DB5 CC                                           INT 3 
00002DB6 CC                                           INT 3 
00002DB7 CC                                           INT 3 
00002DB8 CC                                           INT 3 
00002DB9 CC                                           INT 3 
00002DBA CC                                           INT 3 
00002DBB CC                                           INT 3 
00002DBC CC                                           INT 3 
00002DBD CC                                           INT 3 
00002DBE CC                                           INT 3 
00002DBF CC                                           INT 3 
00002DC0 CC                                           INT 3 
00002DC1 CC                                           INT 3 
00002DC2 CC                                           INT 3 
00002DC3 CC                                           INT 3 
00002DC4 CC                                           INT 3 
00002DC5 CC                                           INT 3 
00002DC6 CC                                           INT 3 
00002DC7 CC                                           INT 3 
00002DC8 CC                                           INT 3 
00002DC9 CC                                           INT 3 
00002DCA CC                                           INT 3 
00002DCB CC                                           INT 3 
00002DCC CC                                           INT 3 
00002DCD CC                                           INT 3 
00002DCE CC                                           INT 3 
00002DCF CC                                           INT 3 
00002DD0 CC                                           INT 3 
00002DD1 CC                                           INT 3 
00002DD2 CC                                           INT 3 
00002DD3 CC                                           INT 3 
00002DD4 CC                                           INT 3 
00002DD5 CC                                           INT 3 
00002DD6 CC                                           INT 3 
00002DD7 CC                                           INT 3 
00002DD8 CC                                           INT 3 
00002DD9 CC                                           INT 3 
00002DDA CC                                           INT 3 
00002DDB CC                                           INT 3 
00002DDC CC                                           INT 3 
00002DDD CC                                           INT 3 
00002DDE CC                                           INT 3 
00002DDF CC                                           INT 3 
00002DE0 CC                                           INT 3 
00002DE1 CC                                           INT 3 
00002DE2 CC                                           INT 3 
00002DE3 CC                                           INT 3 
00002DE4 CC                                           INT 3 
00002DE5 CC                                           INT 3 
00002DE6 CC                                           INT 3 
00002DE7 CC                                           INT 3 
00002DE8 CC                                           INT 3 
00002DE9 CC                                           INT 3 
00002DEA CC                                           INT 3 
00002DEB CC                                           INT 3 
00002DEC CC                                           INT 3 
00002DED CC                                           INT 3 
00002DEE CC                                           INT 3 
00002DEF CC                                           INT 3 
00002DF0 CC                                           INT 3 
00002DF1 CC                                           INT 3 
00002DF2 CC                                           INT 3 
00002DF3 CC                                           INT 3 
00002DF4 CC                                           INT 3 
00002DF5 CC                                           INT 3 
00002DF6 CC                                           INT 3 
00002DF7 CC                                           INT 3 
00002DF8 CC                                           INT 3 
00002DF9 CC                                           INT 3 
00002DFA CC                                           INT 3 
00002DFB CC                                           INT 3 
00002DFC CC                                           INT 3 
00002DFD CC                                           INT 3 
00002DFE CC                                           INT 3 
00002DFF CC                                           INT 3 
00002E00 CC                                           INT 3 
00002E01 CC                                           INT 3 
00002E02 CC                                           INT 3 
00002E03 CC                                           INT 3 
00002E04 CC                                           INT 3 
00002E05 CC                                           INT 3 
00002E06 CC                                           INT 3 
00002E07 CC                                           INT 3 
00002E08 CC                                           INT 3 
00002E09 CC                                           INT 3 
00002E0A CC                                           INT 3 
00002E0B CC                                           INT 3 
00002E0C CC                                           INT 3 
00002E0D CC                                           INT 3 
00002E0E CC                                           INT 3 
00002E0F CC                                           INT 3 
00002E10 CC                                           INT 3 
00002E11 CC                                           INT 3 
00002E12 CC                                           INT 3 
00002E13 CC                                           INT 3 
00002E14 CC                                           INT 3 
00002E15 CC                                           INT 3 
00002E16 CC                                           INT 3 
00002E17 CC                                           INT 3 
00002E18 CC                                           INT 3 
00002E19 CC                                           INT 3 
00002E1A CC                                           INT 3 
00002E1B CC                                           INT 3 
00002E1C CC                                           INT 3 
00002E1D CC                                           INT 3 
00002E1E CC                                           INT 3 
00002E1F CC                                           INT 3 
00002E20 CC                                           INT 3 
00002E21 CC                                           INT 3 
00002E22 CC                                           INT 3 
00002E23 CC                                           INT 3 
00002E24 CC                                           INT 3 
00002E25 CC                                           INT 3 
00002E26 CC                                           INT 3 
00002E27 CC                                           INT 3 
00002E28 CC                                           INT 3 
00002E29 CC                                           INT 3 
00002E2A CC                                           INT 3 
00002E2B CC                                           INT 3 
00002E2C CC                                           INT 3 
00002E2D CC                                           INT 3 
00002E2E CC                                           INT 3 
00002E2F CC                                           INT 3 
00002E30 CC                                           INT 3 
00002E31 CC                                           INT 3 
00002E32 CC                                           INT 3 
00002E33 CC                                           INT 3 
00002E34 CC                                           INT 3 
00002E35 CC                                           INT 3 
00002E36 CC                                           INT 3 
00002E37 CC                                           INT 3 
00002E38 CC                                           INT 3 
00002E39 CC                                           INT 3 
00002E3A CC                                           INT 3 
00002E3B CC                                           INT 3 
00002E3C CC                                           INT 3 
00002E3D CC                                           INT 3 
00002E3E CC                                           INT 3 
00002E3F CC                                           INT 3 
00002E40 CC                                           INT 3 
00002E41 CC                                           INT 3 
00002E42 CC                                           INT 3 
00002E43 CC                                           INT 3 
00002E44 CC                                           INT 3 
00002E45 CC                                           INT 3 
00002E46 CC                                           INT 3 
00002E47 CC                                           INT 3 
00002E48 CC                                           INT 3 
00002E49 CC                                           INT 3 
00002E4A CC                                           INT 3 
00002E4B CC                                           INT 3 
00002E4C CC                                           INT 3 
00002E4D CC                                           INT 3 
00002E4E CC                                           INT 3 
00002E4F CC                                           INT 3 
00002E50 CC                                           INT 3 
00002E51 CC                                           INT 3 
00002E52 CC                                           INT 3 
00002E53 CC                                           INT 3 
00002E54 CC                                           INT 3 
00002E55 CC                                           INT 3 
00002E56 CC                                           INT 3 
00002E57 CC                                           INT 3 
00002E58 CC                                           INT 3 
00002E59 CC                                           INT 3 
00002E5A CC                                           INT 3 
00002E5B CC                                           INT 3 
00002E5C CC                                           INT 3 
00002E5D CC                                           INT 3 
00002E5E CC                                           INT 3 
00002E5F CC                                           INT 3 
00002E60 CC                                           INT 3 
00002E61 CC                                           INT 3 
00002E62 CC                                           INT 3 
00002E63 CC                                           INT 3 
00002E64 CC                                           INT 3 
00002E65 CC                                           INT 3 
00002E66 CC                                           INT 3 
00002E67 CC                                           INT 3 
00002E68 CC                                           INT 3 
00002E69 CC                                           INT 3 
00002E6A CC                                           INT 3 
00002E6B CC                                           INT 3 
00002E6C CC                                           INT 3 
00002E6D CC                                           INT 3 
00002E6E CC                                           INT 3 
00002E6F CC                                           INT 3 
00002E70 CC                                           INT 3 
00002E71 CC                                           INT 3 
00002E72 CC                                           INT 3 
00002E73 CC                                           INT 3 
00002E74 CC                                           INT 3 
00002E75 CC                                           INT 3 
00002E76 CC                                           INT 3 
00002E77 CC                                           INT 3 
00002E78 CC                                           INT 3 
00002E79 CC                                           INT 3 
00002E7A CC                                           INT 3 
00002E7B CC                                           INT 3 
00002E7C CC                                           INT 3 
00002E7D CC                                           INT 3 
00002E7E CC                                           INT 3 
00002E7F CC                                           INT 3 
00002E80 CC                                           INT 3 
00002E81 CC                                           INT 3 
00002E82 CC                                           INT 3 
00002E83 CC                                           INT 3 
00002E84 CC                                           INT 3 
00002E85 CC                                           INT 3 
00002E86 CC                                           INT 3 
00002E87 CC                                           INT 3 
00002E88 CC                                           INT 3 
00002E89 CC                                           INT 3 
00002E8A CC                                           INT 3 
00002E8B CC                                           INT 3 
00002E8C CC                                           INT 3 
00002E8D CC                                           INT 3 
00002E8E CC                                           INT 3 
00002E8F CC                                           INT 3 
00002E90 CC                                           INT 3 
00002E91 CC                                           INT 3 
00002E92 CC                                           INT 3 
00002E93 CC                                           INT 3 
00002E94 CC                                           INT 3 
00002E95 CC                                           INT 3 
00002E96 CC                                           INT 3 
00002E97 CC                                           INT 3 
00002E98 CC                                           INT 3 
00002E99 CC                                           INT 3 
00002E9A CC                                           INT 3 
00002E9B CC                                           INT 3 
00002E9C CC                                           INT 3 
00002E9D CC                                           INT 3 
00002E9E CC                                           INT 3 
00002E9F CC                                           INT 3 
00002EA0 CC                                           INT 3 
00002EA1 CC                                           INT 3 
00002EA2 CC                                           INT 3 
00002EA3 CC                                           INT 3 
00002EA4 CC                                           INT 3 
00002EA5 CC                                           INT 3 
00002EA6 CC                                           INT 3 
00002EA7 CC                                           INT 3 
00002EA8 CC                                           INT 3 
00002EA9 CC                                           INT 3 
00002EAA CC                                           INT 3 
00002EAB CC                                           INT 3 
00002EAC CC                                           INT 3 
00002EAD CC                                           INT 3 
00002EAE CC                                           INT 3 
00002EAF CC                                           INT 3 
00002EB0 CC                                           INT 3 
00002EB1 CC                                           INT 3 
00002EB2 CC                                           INT 3 
00002EB3 CC                                           INT 3 
00002EB4 CC                                           INT 3 
00002EB5 CC                                           INT 3 
00002EB6 CC                                           INT 3 
00002EB7 CC                                           INT 3 
00002EB8 CC                                           INT 3 
00002EB9 CC                                           INT 3 
00002EBA CC                                           INT 3 
00002EBB CC                                           INT 3 
00002EBC CC                                           INT 3 
00002EBD CC                                           INT 3 
00002EBE CC                                           INT 3 
00002EBF CC                                           INT 3 
00002EC0 CC                                           INT 3 
00002EC1 CC                                           INT 3 
00002EC2 CC                                           INT 3 
00002EC3 CC                                           INT 3 
00002EC4 CC                                           INT 3 
00002EC5 CC                                           INT 3 
00002EC6 CC                                           INT 3 
00002EC7 CC                                           INT 3 
00002EC8 CC                                           INT 3 
00002EC9 CC                                           INT 3 
00002ECA CC                                           INT 3 
00002ECB CC                                           INT 3 
00002ECC CC                                           INT 3 
00002ECD CC                                           INT 3 
00002ECE CC                                           INT 3 
00002ECF CC                                           INT 3 
00002ED0 CC                                           INT 3 
00002ED1 CC                                           INT 3 
00002ED2 CC                                           INT 3 
00002ED3 CC                                           INT 3 
00002ED4 CC                                           INT 3 
00002ED5 CC                                           INT 3 
00002ED6 CC                                           INT 3 
00002ED7 CC                                           INT 3 
00002ED8 CC                                           INT 3 
00002ED9 CC                                           INT 3 
00002EDA CC                                           INT 3 
00002EDB CC                                           INT 3 
00002EDC CC                                           INT 3 
00002EDD CC                                           INT 3 
00002EDE CC                                           INT 3 
00002EDF CC                                           INT 3 
00002EE0 CC                                           INT 3 
00002EE1 CC                                           INT 3 
00002EE2 CC                                           INT 3 
00002EE3 CC                                           INT 3 
00002EE4 CC                                           INT 3 
00002EE5 CC                                           INT 3 
00002EE6 CC                                           INT 3 
00002EE7 CC                                           INT 3 
00002EE8 CC                                           INT 3 
00002EE9 CC                                           INT 3 
00002EEA CC                                           INT 3 
00002EEB CC                                           INT 3 
00002EEC CC                                           INT 3 
00002EED CC                                           INT 3 
00002EEE CC                                           INT 3 
00002EEF CC                                           INT 3 
00002EF0 CC                                           INT 3 
00002EF1 CC                                           INT 3 
00002EF2 CC                                           INT 3 
00002EF3 CC                                           INT 3 
00002EF4 CC                                           INT 3 
00002EF5 CC                                           INT 3 
00002EF6 CC                                           INT 3 
00002EF7 CC                                           INT 3 
00002EF8 CC                                           INT 3 
00002EF9 CC                                           INT 3 
00002EFA CC                                           INT 3 
00002EFB CC                                           INT 3 
00002EFC CC                                           INT 3 
00002EFD CC                                           INT 3 
00002EFE CC                                           INT 3 
00002EFF CC                                           INT 3 
00002F00 CC                                           INT 3 
00002F01 CC                                           INT 3 
00002F02 CC                                           INT 3 
00002F03 CC                                           INT 3 
00002F04 CC                                           INT 3 
00002F05 CC                                           INT 3 
00002F06 CC                                           INT 3 
00002F07 CC                                           INT 3 
00002F08 CC                                           INT 3 
00002F09 CC                                           INT 3 
00002F0A CC                                           INT 3 
00002F0B CC                                           INT 3 
00002F0C CC                                           INT 3 
00002F0D CC                                           INT 3 
00002F0E CC                                           INT 3 
00002F0F CC                                           INT 3 
00002F10 CC                                           INT 3 
00002F11 CC                                           INT 3 
00002F12 CC                                           INT 3 
00002F13 CC                                           INT 3 
00002F14 CC                                           INT 3 
00002F15 CC                                           INT 3 
00002F16 CC                                           INT 3 
00002F17 CC                                           INT 3 
00002F18 CC                                           INT 3 
00002F19 CC                                           INT 3 
00002F1A CC                                           INT 3 
00002F1B CC                                           INT 3 
00002F1C CC                                           INT 3 
00002F1D CC                                           INT 3 
00002F1E CC                                           INT 3 
00002F1F CC                                           INT 3 
00002F20 CC                                           INT 3 
00002F21 CC                                           INT 3 
00002F22 CC                                           INT 3 
00002F23 CC                                           INT 3 
00002F24 CC                                           INT 3 
00002F25 CC                                           INT 3 
00002F26 CC                                           INT 3 
00002F27 CC                                           INT 3 
00002F28 CC                                           INT 3 
00002F29 CC                                           INT 3 
00002F2A CC                                           INT 3 
00002F2B CC                                           INT 3 
00002F2C CC                                           INT 3 
00002F2D CC                                           INT 3 
00002F2E CC                                           INT 3 
00002F2F CC                                           INT 3 
00002F30 CC                                           INT 3 
00002F31 CC                                           INT 3 
00002F32 CC                                           INT 3 
00002F33 CC                                           INT 3 
00002F34 CC                                           INT 3 
00002F35 CC                                           INT 3 
00002F36 CC                                           INT 3 
00002F37 CC                                           INT 3 
00002F38 CC                                           INT 3 
00002F39 CC                                           INT 3 
00002F3A CC                                           INT 3 
00002F3B CC                                           INT 3 
00002F3C CC                                           INT 3 
00002F3D CC                                           INT 3 
00002F3E CC                                           INT 3 
00002F3F CC                                           INT 3 
00002F40 CC                                           INT 3 
00002F41 CC                                           INT 3 
00002F42 CC                                           INT 3 
00002F43 CC                                           INT 3 
00002F44 CC                                           INT 3 
00002F45 CC                                           INT 3 
00002F46 CC                                           INT 3 
00002F47 CC                                           INT 3 
00002F48 CC                                           INT 3 
00002F49 CC                                           INT 3 
00002F4A CC                                           INT 3 
00002F4B CC                                           INT 3 
00002F4C CC                                           INT 3 
00002F4D CC                                           INT 3 
00002F4E CC                                           INT 3 
00002F4F CC                                           INT 3 
00002F50 CC                                           INT 3 
00002F51 CC                                           INT 3 
00002F52 CC                                           INT 3 
00002F53 CC                                           INT 3 
00002F54 CC                                           INT 3 
00002F55 CC                                           INT 3 
00002F56 CC                                           INT 3 
00002F57 CC                                           INT 3 
00002F58 CC                                           INT 3 
00002F59 CC                                           INT 3 
00002F5A CC                                           INT 3 
00002F5B CC                                           INT 3 
00002F5C CC                                           INT 3 
00002F5D CC                                           INT 3 
00002F5E CC                                           INT 3 
00002F5F CC                                           INT 3 
00002F60 CC                                           INT 3 
00002F61 CC                                           INT 3 
00002F62 CC                                           INT 3 
00002F63 CC                                           INT 3 
00002F64 CC                                           INT 3 
00002F65 CC                                           INT 3 
00002F66 CC                                           INT 3 
00002F67 CC                                           INT 3 
00002F68 CC                                           INT 3 
00002F69 CC                                           INT 3 
00002F6A CC                                           INT 3 
00002F6B CC                                           INT 3 
00002F6C CC                                           INT 3 
00002F6D CC                                           INT 3 
00002F6E CC                                           INT 3 
00002F6F CC                                           INT 3 
00002F70 CC                                           INT 3 
00002F71 CC                                           INT 3 
00002F72 CC                                           INT 3 
00002F73 CC                                           INT 3 
00002F74 CC                                           INT 3 
00002F75 CC                                           INT 3 
00002F76 CC                                           INT 3 
00002F77 CC                                           INT 3 
00002F78 CC                                           INT 3 
00002F79 CC                                           INT 3 
00002F7A CC                                           INT 3 
00002F7B CC                                           INT 3 
00002F7C CC                                           INT 3 
00002F7D CC                                           INT 3 
00002F7E CC                                           INT 3 
00002F7F CC                                           INT 3 
00002F80 CC                                           INT 3 
00002F81 CC                                           INT 3 
00002F82 CC                                           INT 3 
00002F83 CC                                           INT 3 
00002F84 CC                                           INT 3 
00002F85 CC                                           INT 3 
00002F86 CC                                           INT 3 
00002F87 CC                                           INT 3 
00002F88 CC                                           INT 3 
00002F89 CC                                           INT 3 
00002F8A CC                                           INT 3 
00002F8B CC                                           INT 3 
00002F8C CC                                           INT 3 
00002F8D CC                                           INT 3 
00002F8E CC                                           INT 3 
00002F8F CC                                           INT 3 
00002F90 CC                                           INT 3 
00002F91 CC                                           INT 3 
00002F92 CC                                           INT 3 
00002F93 CC                                           INT 3 
00002F94 CC                                           INT 3 
00002F95 CC                                           INT 3 
00002F96 CC                                           INT 3 
00002F97 CC                                           INT 3 
00002F98 CC                                           INT 3 
00002F99 CC                                           INT 3 
00002F9A CC                                           INT 3 
00002F9B CC                                           INT 3 
00002F9C CC                                           INT 3 
00002F9D CC                                           INT 3 
00002F9E CC                                           INT 3 
00002F9F CC                                           INT 3 
00002FA0 CC                                           INT 3 
00002FA1 CC                                           INT 3 
00002FA2 CC                                           INT 3 
00002FA3 CC                                           INT 3 
00002FA4 CC                                           INT 3 
00002FA5 CC                                           INT 3 
00002FA6 CC                                           INT 3 
00002FA7 CC                                           INT 3 
00002FA8 CC                                           INT 3 
00002FA9 CC                                           INT 3 
00002FAA CC                                           INT 3 
00002FAB CC                                           INT 3 
00002FAC CC                                           INT 3 
00002FAD CC                                           INT 3 
00002FAE CC                                           INT 3 
00002FAF CC                                           INT 3 
00002FB0 CC                                           INT 3 
00002FB1 CC                                           INT 3 
00002FB2 CC                                           INT 3 
00002FB3 CC                                           INT 3 
00002FB4 CC                                           INT 3 
00002FB5 CC                                           INT 3 
00002FB6 CC                                           INT 3 
00002FB7 CC                                           INT 3 
00002FB8 CC                                           INT 3 
00002FB9 CC                                           INT 3 
00002FBA CC                                           INT 3 
00002FBB CC                                           INT 3 
00002FBC CC                                           INT 3 
00002FBD CC                                           INT 3 
00002FBE CC                                           INT 3 
00002FBF CC                                           INT 3 
00002FC0 CC                                           INT 3 
00002FC1 CC                                           INT 3 
00002FC2 CC                                           INT 3 
00002FC3 CC                                           INT 3 
00002FC4 CC                                           INT 3 
00002FC5 CC                                           INT 3 
00002FC6 CC                                           INT 3 
00002FC7 CC                                           INT 3 
00002FC8 CC                                           INT 3 
00002FC9 CC                                           INT 3 
00002FCA CC                                           INT 3 
00002FCB CC                                           INT 3 
00002FCC CC                                           INT 3 
00002FCD CC                                           INT 3 
00002FCE CC                                           INT 3 
00002FCF CC                                           INT 3 
00002FD0 CC                                           INT 3 
00002FD1 CC                                           INT 3 
00002FD2 CC                                           INT 3 
00002FD3 CC                                           INT 3 
00002FD4 CC                                           INT 3 
00002FD5 CC                                           INT 3 
00002FD6 CC                                           INT 3 
00002FD7 CC                                           INT 3 
00002FD8 CC                                           INT 3 
00002FD9 CC                                           INT 3 
00002FDA CC                                           INT 3 
00002FDB CC                                           INT 3 
00002FDC CC                                           INT 3 
00002FDD CC                                           INT 3 
00002FDE CC                                           INT 3 
00002FDF CC                                           INT 3 
00002FE0 CC                                           INT 3 
00002FE1 CC                                           INT 3 
00002FE2 CC                                           INT 3 
00002FE3 CC                                           INT 3 
00002FE4 CC                                           INT 3 
00002FE5 CC                                           INT 3 
00002FE6 CC                                           INT 3 
00002FE7 CC                                           INT 3 
00002FE8 CC                                           INT 3 
00002FE9 CC                                           INT 3 
00002FEA CC                                           INT 3 
00002FEB CC                                           INT 3 
00002FEC CC                                           INT 3 
00002FED CC                                           INT 3 
00002FEE CC                                           INT 3 
00002FEF CC                                           INT 3 
00002FF0 CC                                           INT 3 
00002FF1 CC                                           INT 3 
00002FF2 CC                                           INT 3 
00002FF3 CC                                           INT 3 
00002FF4 CC                                           INT 3 
00002FF5 CC                                           INT 3 
00002FF6 CC                                           INT 3 
00002FF7 CC                                           INT 3 
00002FF8 CC                                           INT 3 
00002FF9 CC                                           INT 3 
00002FFA CC                                           INT 3 
00002FFB CC                                           INT 3 
00002FFC CC                                           INT 3 
00002FFD CC                                           INT 3 
00002FFE CC                                           INT 3 
00002FFF CC                                           INT 3 
00003000 CC                                           INT 3 
00003001 CC                                           INT 3 
00003002 CC                                           INT 3 
00003003 CC                                           INT 3 
00003004 CC                                           INT 3 
00003005 CC                                           INT 3 
00003006 CC                                           INT 3 
00003007 CC                                           INT 3 
00003008 CC                                           INT 3 
00003009 CC                                           INT 3 
0000300A CC                                           INT 3 
0000300B CC                                           INT 3 
0000300C CC                                           INT 3 
0000300D CC                                           INT 3 
0000300E CC                                           INT 3 
0000300F CC                                           INT 3 
00003010 CC                                           INT 3 
00003011 CC                                           INT 3 
00003012 CC                                           INT 3 
00003013 CC                                           INT 3 
00003014 CC                                           INT 3 
00003015 CC                                           INT 3 
00003016 CC                                           INT 3 
00003017 CC                                           INT 3 
00003018 CC                                           INT 3 
00003019 CC                                           INT 3 
0000301A CC                                           INT 3 
0000301B CC                                           INT 3 
0000301C CC                                           INT 3 
0000301D CC                                           INT 3 
0000301E CC                                           INT 3 
0000301F CC                                           INT 3 
00003020 CC                                           INT 3 
00003021 CC                                           INT 3 
00003022 CC                                           INT 3 
00003023 CC                                           INT 3 
00003024 CC                                           INT 3 
00003025 CC                                           INT 3 
00003026 CC                                           INT 3 
00003027 CC                                           INT 3 
00003028 CC                                           INT 3 
00003029 CC                                           INT 3 
0000302A CC                                           INT 3 
0000302B CC                                           INT 3 
0000302C CC                                           INT 3 
0000302D CC                                           INT 3 
0000302E CC                                           INT 3 
0000302F CC                                           INT 3 
00003030 CC                                           INT 3 
00003031 CC                                           INT 3 
00003032 CC                                           INT 3 
00003033 CC                                           INT 3 
00003034 CC                                           INT 3 
00003035 CC                                           INT 3 
00003036 CC                                           INT 3 
00003037 CC                                           INT 3 
00003038 CC                                           INT 3 
00003039 CC                                           INT 3 
0000303A CC                                           INT 3 
0000303B CC                                           INT 3 
0000303C CC                                           INT 3 
0000303D CC                                           INT 3 
0000303E CC                                           INT 3 
0000303F CC                                           INT 3 
00003040 CC                                           INT 3 
00003041 CC                                           INT 3 
00003042 CC                                           INT 3 
00003043 CC                                           INT 3 
00003044 CC                                           INT 3 
00003045 CC                                           INT 3 
00003046 CC                                           INT 3 
00003047 CC                                           INT 3 
00003048 CC                                           INT 3 
00003049 CC                                           INT 3 
0000304A CC                                           INT 3 
0000304B CC                                           INT 3 
0000304C CC                                           INT 3 
0000304D CC                                           INT 3 
0000304E CC                                           INT 3 
0000304F CC                                           INT 3 
00003050 CC                                           INT 3 
00003051 CC                                           INT 3 
00003052 CC                                           INT 3 
00003053 CC                                           INT 3 
00003054 CC                                           INT 3 
00003055 CC                                           INT 3 
00003056 CC                                           INT 3 
00003057 CC                                           INT 3 
00003058 CC                                           INT 3 
00003059 CC                                           INT 3 
0000305A CC                                           INT 3 
0000305B CC                                           INT 3 
0000305C CC                                           INT 3 
0000305D CC                                           INT 3 
0000305E CC                                           INT 3 
0000305F CC                                           INT 3 
00003060 CC                                           INT 3 
00003061 CC                                           INT 3 
00003062 CC                                           INT 3 
00003063 CC                                           INT 3 
00003064 CC                                           INT 3 
00003065 CC                                           INT 3 
00003066 CC                                           INT 3 
00003067 CC                                           INT 3 
00003068 CC                                           INT 3 
00003069 CC                                           INT 3 
0000306A CC                                           INT 3 
0000306B CC                                           INT 3 
0000306C CC                                           INT 3 
0000306D CC                                           INT 3 
0000306E CC                                           INT 3 
0000306F CC                                           INT 3 
00003070 CC                                           INT 3 
00003071 CC                                           INT 3 
00003072 CC                                           INT 3 
00003073 CC                                           INT 3 
00003074 CC                                           INT 3 
00003075 CC                                           INT 3 
00003076 CC                                           INT 3 
00003077 CC                                           INT 3 
00003078 CC                                           INT 3 
00003079 CC                                           INT 3 
0000307A CC                                           INT 3 
0000307B CC                                           INT 3 
0000307C CC                                           INT 3 
0000307D CC                                           INT 3 
0000307E CC                                           INT 3 
0000307F CC                                           INT 3 
00003080 CC                                           INT 3 
00003081 CC                                           INT 3 
00003082 CC                                           INT 3 
00003083 CC                                           INT 3 
00003084 CC                                           INT 3 
00003085 CC                                           INT 3 
00003086 CC                                           INT 3 
00003087 CC                                           INT 3 
00003088 CC                                           INT 3 
00003089 CC                                           INT 3 
0000308A CC                                           INT 3 
0000308B CC                                           INT 3 
0000308C CC                                           INT 3 
0000308D CC                                           INT 3 
0000308E CC                                           INT 3 
0000308F CC                                           INT 3 
00003090 CC                                           INT 3 
00003091 CC                                           INT 3 
00003092 CC                                           INT 3 
00003093 CC                                           INT 3 
00003094 CC                                           INT 3 
00003095 CC                                           INT 3 
00003096 CC                                           INT 3 
00003097 CC                                           INT 3 
00003098 CC                                           INT 3 
00003099 CC                                           INT 3 
0000309A CC                                           INT 3 
0000309B CC                                           INT 3 
0000309C CC                                           INT 3 
0000309D CC                                           INT 3 
0000309E CC                                           INT 3 
0000309F CC                                           INT 3 
000030A0 CC                                           INT 3 
000030A1 CC                                           INT 3 
000030A2 CC                                           INT 3 
000030A3 CC                                           INT 3 
000030A4 CC                                           INT 3 
000030A5 CC                                           INT 3 
000030A6 CC                                           INT 3 
000030A7 CC                                           INT 3 
000030A8 CC                                           INT 3 
000030A9 CC                                           INT 3 
000030AA CC                                           INT 3 
000030AB CC                                           INT 3 
000030AC CC                                           INT 3 
000030AD CC                                           INT 3 
000030AE CC                                           INT 3 
000030AF CC                                           INT 3 
000030B0 CC                                           INT 3 
000030B1 CC                                           INT 3 
000030B2 CC                                           INT 3 
000030B3 CC                                           INT 3 
000030B4 CC                                           INT 3 
000030B5 CC                                           INT 3 
000030B6 CC                                           INT 3 
000030B7 CC                                           INT 3 
000030B8 CC                                           INT 3 
000030B9 CC                                           INT 3 
000030BA CC                                           INT 3 
000030BB CC                                           INT 3 
000030BC CC                                           INT 3 
000030BD CC                                           INT 3 
000030BE CC                                           INT 3 
000030BF CC                                           INT 3 
000030C0 CC                                           INT 3 
000030C1 CC                                           INT 3 
000030C2 CC                                           INT 3 
000030C3 CC                                           INT 3 
000030C4 CC                                           INT 3 
000030C5 CC                                           INT 3 
000030C6 CC                                           INT 3 
000030C7 CC                                           INT 3 
000030C8 CC                                           INT 3 
000030C9 CC                                           INT 3 
000030CA CC                                           INT 3 
000030CB CC                                           INT 3 
000030CC CC                                           INT 3 
000030CD CC                                           INT 3 
000030CE CC                                           INT 3 
000030CF CC                                           INT 3 
000030D0 CC                                           INT 3 
000030D1 CC                                           INT 3 
000030D2 CC                                           INT 3 
000030D3 CC                                           INT 3 
000030D4 CC                                           INT 3 
000030D5 CC                                           INT 3 
000030D6 CC                                           INT 3 
000030D7 CC                                           INT 3 
000030D8 CC                                           INT 3 
000030D9 CC                                           INT 3 
000030DA CC                                           INT 3 
000030DB CC                                           INT 3 
000030DC CC                                           INT 3 
000030DD CC                                           INT 3 
000030DE CC                                           INT 3 
000030DF CC                                           INT 3 
000030E0 CC                                           INT 3 
000030E1 CC                                           INT 3 
000030E2 CC                                           INT 3 
000030E3 CC                                           INT 3 
000030E4 CC                                           INT 3 
000030E5 CC                                           INT 3 
000030E6 CC                                           INT 3 
000030E7 CC                                           INT 3 
000030E8 CC                                           INT 3 
000030E9 CC                                           INT 3 
000030EA CC                                           INT 3 
000030EB CC                                           INT 3 
000030EC CC                                           INT 3 
000030ED CC                                           INT 3 
000030EE CC                                           INT 3 
000030EF CC                                           INT 3 
000030F0 CC                                           INT 3 
000030F1 CC                                           INT 3 
000030F2 CC                                           INT 3 
000030F3 CC                                           INT 3 
000030F4 CC                                           INT 3 
000030F5 CC                                           INT 3 
000030F6 CC                                           INT 3 
000030F7 CC                                           INT 3 
000030F8 CC                                           INT 3 
000030F9 CC                                           INT 3 
000030FA CC                                           INT 3 
000030FB CC                                           INT 3 
000030FC CC                                           INT 3 
000030FD CC                                           INT 3 
000030FE CC                                           INT 3 
000030FF CC                                           INT 3 
00003100 CC                                           INT 3 
00003101 CC                                           INT 3 
00003102 CC                                           INT 3 
00003103 CC                                           INT 3 
00003104 CC                                           INT 3 
00003105 CC                                           INT 3 
00003106 CC                                           INT 3 
00003107 CC                                           INT 3 
00003108 CC                                           INT 3 
00003109 CC                                           INT 3 
0000310A CC                                           INT 3 
0000310B CC                                           INT 3 
0000310C CC                                           INT 3 
0000310D CC                                           INT 3 
0000310E CC                                           INT 3 
0000310F CC                                           INT 3 
00003110 CC                                           INT 3 
00003111 CC                                           INT 3 
00003112 CC                                           INT 3 
00003113 CC                                           INT 3 
00003114 CC                                           INT 3 
00003115 CC                                           INT 3 
00003116 CC                                           INT 3 
00003117 CC                                           INT 3 
00003118 CC                                           INT 3 
00003119 CC                                           INT 3 
0000311A CC                                           INT 3 
0000311B CC                                           INT 3 
0000311C CC                                           INT 3 
0000311D CC                                           INT 3 
0000311E CC                                           INT 3 
0000311F CC                                           INT 3 
00003120 CC                                           INT 3 
00003121 CC                                           INT 3 
00003122 CC                                           INT 3 
00003123 CC                                           INT 3 
00003124 CC                                           INT 3 
00003125 CC                                           INT 3 
00003126 CC                                           INT 3 
00003127 CC                                           INT 3 
00003128 CC                                           INT 3 
00003129 CC                                           INT 3 
0000312A CC                                           INT 3 
0000312B CC                                           INT 3 
0000312C CC                                           INT 3 
0000312D CC                                           INT 3 
0000312E CC                                           INT 3 
0000312F CC                                           INT 3 
00003130 CC                                           INT 3 
00003131 CC                                           INT 3 
00003132 CC                                           INT 3 
00003133 CC                                           INT 3 
00003134 CC                                           INT 3 
00003135 CC                                           INT 3 
00003136 CC                                           INT 3 
00003137 CC                                           INT 3 
00003138 CC                                           INT 3 
00003139 CC                                           INT 3 
0000313A CC                                           INT 3 
0000313B CC                                           INT 3 
0000313C CC                                           INT 3 
0000313D CC                                           INT 3 
0000313E CC                                           INT 3 
0000313F CC                                           INT 3 
00003140 CC                                           INT 3 
00003141 CC                                           INT 3 
00003142 CC                                           INT 3 
00003143 CC                                           INT 3 
00003144 CC                                           INT 3 
00003145 CC                                           INT 3 
00003146 CC                                           INT 3 
00003147 CC                                           INT 3 
00003148 CC                                           INT 3 
00003149 CC                                           INT 3 
0000314A CC                                           INT 3 
0000314B CC                                           INT 3 
0000314C CC                                           INT 3 
0000314D CC                                           INT 3 
0000314E CC                                           INT 3 
0000314F CC                                           INT 3 
00003150 CC                                           INT 3 
00003151 CC                                           INT 3 
00003152 CC                                           INT 3 
00003153 CC                                           INT 3 
00003154 CC                                           INT 3 
00003155 CC                                           INT 3 
00003156 CC                                           INT 3 
00003157 CC                                           INT 3 
00003158 CC                                           INT 3 
00003159 CC                                           INT 3 
0000315A CC                                           INT 3 
0000315B CC                                           INT 3 
0000315C CC                                           INT 3 
0000315D CC                                           INT 3 
0000315E CC                                           INT 3 
0000315F CC                                           INT 3 
00003160 CC                                           INT 3 
00003161 CC                                           INT 3 
00003162 CC                                           INT 3 
00003163 CC                                           INT 3 
00003164 CC                                           INT 3 
00003165 CC                                           INT 3 
00003166 CC                                           INT 3 
00003167 CC                                           INT 3 
00003168 CC                                           INT 3 
00003169 CC                                           INT 3 
0000316A CC                                           INT 3 
0000316B CC                                           INT 3 
0000316C CC                                           INT 3 
0000316D CC                                           INT 3 
0000316E CC                                           INT 3 
0000316F CC                                           INT 3 
00003170 CC                                           INT 3 
00003171 CC                                           INT 3 
00003172 CC                                           INT 3 
00003173 CC                                           INT 3 
00003174 CC                                           INT 3 
00003175 CC                                           INT 3 
00003176 CC                                           INT 3 
00003177 CC                                           INT 3 
00003178 CC                                           INT 3 
00003179 CC                                           INT 3 
0000317A CC                                           INT 3 
0000317B CC                                           INT 3 
0000317C CC                                           INT 3 
0000317D CC                                           INT 3 
0000317E CC                                           INT 3 
0000317F CC                                           INT 3 
00003180 CC                                           INT 3 
00003181 CC                                           INT 3 
00003182 CC                                           INT 3 
00003183 CC                                           INT 3 
00003184 CC                                           INT 3 
00003185 CC                                           INT 3 
00003186 CC                                           INT 3 
00003187 CC                                           INT 3 
00003188 CC                                           INT 3 
00003189 CC                                           INT 3 
0000318A CC                                           INT 3 
0000318B CC                                           INT 3 
0000318C CC                                           INT 3 
0000318D CC                                           INT 3 
0000318E CC                                           INT 3 
0000318F CC                                           INT 3 
00003190 CC                                           INT 3 
00003191 CC                                           INT 3 
00003192 CC                                           INT 3 
00003193 CC                                           INT 3 
00003194 CC                                           INT 3 
00003195 CC                                           INT 3 
00003196 CC                                           INT 3 
00003197 CC                                           INT 3 
00003198 CC                                           INT 3 
00003199 CC                                           INT 3 
0000319A CC                                           INT 3 
0000319B CC                                           INT 3 
0000319C CC                                           INT 3 
0000319D CC                                           INT 3 
0000319E CC                                           INT 3 
0000319F CC                                           INT 3 
000031A0 CC                                           INT 3 
000031A1 CC                                           INT 3 
000031A2 CC                                           INT 3 
000031A3 CC                                           INT 3 
000031A4 CC                                           INT 3 
000031A5 CC                                           INT 3 
000031A6 CC                                           INT 3 
000031A7 CC                                           INT 3 
000031A8 CC                                           INT 3 
000031A9 CC                                           INT 3 
000031AA CC                                           INT 3 
000031AB CC                                           INT 3 
000031AC CC                                           INT 3 
000031AD CC                                           INT 3 
000031AE CC                                           INT 3 
000031AF CC                                           INT 3 
000031B0 CC                                           INT 3 
000031B1 CC                                           INT 3 
000031B2 CC                                           INT 3 
000031B3 CC                                           INT 3 
000031B4 CC                                           INT 3 
000031B5 CC                                           INT 3 
000031B6 CC                                           INT 3 
000031B7 CC                                           INT 3 
000031B8 CC                                           INT 3 
000031B9 CC                                           INT 3 
000031BA CC                                           INT 3 
000031BB CC                                           INT 3 
000031BC CC                                           INT 3 
000031BD CC                                           INT 3 
000031BE CC                                           INT 3 
000031BF CC                                           INT 3 
000031C0 CC                                           INT 3 
000031C1 CC                                           INT 3 
000031C2 CC                                           INT 3 
000031C3 CC                                           INT 3 
000031C4 CC                                           INT 3 
000031C5 CC                                           INT 3 
000031C6 CC                                           INT 3 
000031C7 CC                                           INT 3 
000031C8 CC                                           INT 3 
000031C9 CC                                           INT 3 
000031CA CC                                           INT 3 
000031CB CC                                           INT 3 
000031CC CC                                           INT 3 
000031CD CC                                           INT 3 
000031CE CC                                           INT 3 
000031CF CC                                           INT 3 
000031D0 CC                                           INT 3 
000031D1 CC                                           INT 3 
000031D2 CC                                           INT 3 
000031D3 CC                                           INT 3 
000031D4 CC                                           INT 3 
000031D5 CC                                           INT 3 
000031D6 CC                                           INT 3 
000031D7 CC                                           INT 3 
000031D8 CC                                           INT 3 
000031D9 CC                                           INT 3 
000031DA CC                                           INT 3 
000031DB CC                                           INT 3 
000031DC CC                                           INT 3 
000031DD CC                                           INT 3 
000031DE CC                                           INT 3 
000031DF CC                                           INT 3 
000031E0 CC                                           INT 3 
000031E1 CC                                           INT 3 
000031E2 CC                                           INT 3 
000031E3 CC                                           INT 3 
000031E4 CC                                           INT 3 
000031E5 CC                                           INT 3 
000031E6 CC                                           INT 3 
000031E7 CC                                           INT 3 
000031E8 CC                                           INT 3 
000031E9 CC                                           INT 3 
000031EA CC                                           INT 3 
000031EB CC                                           INT 3 
000031EC CC                                           INT 3 
000031ED CC                                           INT 3 
000031EE CC                                           INT 3 
000031EF CC                                           INT 3 
000031F0 CC                                           INT 3 
000031F1 CC                                           INT 3 
000031F2 CC                                           INT 3 
000031F3 CC                                           INT 3 
000031F4 CC                                           INT 3 
000031F5 CC                                           INT 3 
000031F6 CC                                           INT 3 
000031F7 CC                                           INT 3 
000031F8 CC                                           INT 3 
000031F9 CC                                           INT 3 
000031FA CC                                           INT 3 
000031FB CC                                           INT 3 
000031FC CC                                           INT 3 
000031FD CC                                           INT 3 
000031FE CC                                           INT 3 
000031FF CC                                           INT 3 
00003200 CC                                           INT 3 
00003201 CC                                           INT 3 
00003202 CC                                           INT 3 
00003203 CC                                           INT 3 
00003204 CC                                           INT 3 
00003205 CC                                           INT 3 
00003206 CC                                           INT 3 
00003207 CC                                           INT 3 
00003208 CC                                           INT 3 
00003209 CC                                           INT 3 
0000320A CC                                           INT 3 
0000320B CC                                           INT 3 
0000320C CC                                           INT 3 
0000320D CC                                           INT 3 
0000320E CC                                           INT 3 
0000320F CC                                           INT 3 
00003210 CC                                           INT 3 
00003211 CC                                           INT 3 
00003212 CC                                           INT 3 
00003213 CC                                           INT 3 
00003214 CC                                           INT 3 
00003215 CC                                           INT 3 
00003216 CC                                           INT 3 
00003217 CC                                           INT 3 
00003218 CC                                           INT 3 
00003219 CC                                           INT 3 
0000321A CC                                           INT 3 
0000321B CC                                           INT 3 
0000321C CC                                           INT 3 
0000321D CC                                           INT 3 
0000321E CC                                           INT 3 
0000321F CC                                           INT 3 
00003220 CC                                           INT 3 
00003221 CC                                           INT 3 
00003222 CC                                           INT 3 
00003223 CC                                           INT 3 
00003224 CC                                           INT 3 
00003225 CC                                           INT 3 
00003226 CC                                           INT 3 
00003227 CC                                           INT 3 
00003228 CC                                           INT 3 
00003229 CC                                           INT 3 
0000322A CC                                           INT 3 
0000322B CC                                           INT 3 
0000322C CC                                           INT 3 
0000322D CC                                           INT 3 
0000322E CC                                           INT 3 
0000322F CC                                           INT 3 
00003230 CC                                           INT 3 
00003231 CC                                           INT 3 
00003232 CC                                           INT 3 
00003233 CC                                           INT 3 
00003234 CC                                           INT 3 
00003235 CC                                           INT 3 
00003236 CC                                           INT 3 
00003237 CC                                           INT 3 
00003238 CC                                           INT 3 
00003239 CC                                           INT 3 
0000323A CC                                           INT 3 
0000323B CC                                           INT 3 
0000323C CC                                           INT 3 
0000323D CC                                           INT 3 
0000323E CC                                           INT 3 
0000323F CC                                           INT 3 
00003240 CC                                           INT 3 
00003241 CC                                           INT 3 
00003242 CC                                           INT 3 
00003243 CC                                           INT 3 
00003244 CC                                           INT 3 
00003245 CC                                           INT 3 
00003246 CC                                           INT 3 
00003247 CC                                           INT 3 
00003248 CC                                           INT 3 
00003249 CC                                           INT 3 
0000324A CC                                           INT 3 
0000324B CC                                           INT 3 
0000324C CC                                           INT 3 
0000324D CC                                           INT 3 
0000324E CC                                           INT 3 
0000324F CC                                           INT 3 
00003250 CC                                           INT 3 
00003251 CC                                           INT 3 
00003252 CC                                           INT 3 
00003253 CC                                           INT 3 
00003254 CC                                           INT 3 
00003255 CC                                           INT 3 
00003256 CC                                           INT 3 
00003257 CC                                           INT 3 
00003258 CC                                           INT 3 
00003259 CC                                           INT 3 
0000325A CC                                           INT 3 
0000325B CC                                           INT 3 
0000325C CC                                           INT 3 
0000325D CC                                           INT 3 
0000325E CC                                           INT 3 
0000325F CC                                           INT 3 
00003260 CC                                           INT 3 
00003261 CC                                           INT 3 
00003262 CC                                           INT 3 
00003263 CC                                           INT 3 
00003264 CC                                           INT 3 
00003265 CC                                           INT 3 
00003266 CC                                           INT 3 
00003267 CC                                           INT 3 
00003268 CC                                           INT 3 
00003269 CC                                           INT 3 
0000326A CC                                           INT 3 
0000326B CC                                           INT 3 
0000326C CC                                           INT 3 
0000326D CC                                           INT 3 
0000326E CC                                           INT 3 
0000326F CC                                           INT 3 
00003270 CC                                           INT 3 
00003271 CC                                           INT 3 
00003272 CC                                           INT 3 
00003273 CC                                           INT 3 
00003274 CC                                           INT 3 
00003275 CC                                           INT 3 
00003276 CC                                           INT 3 
00003277 CC                                           INT 3 
00003278 CC                                           INT 3 
00003279 CC                                           INT 3 
0000327A CC                                           INT 3 
0000327B CC                                           INT 3 
0000327C CC                                           INT 3 
0000327D CC                                           INT 3 
0000327E CC                                           INT 3 
0000327F CC                                           INT 3 
00003280 CC                                           INT 3 
00003281 CC                                           INT 3 
00003282 CC                                           INT 3 
00003283 CC                                           INT 3 
00003284 CC                                           INT 3 
00003285 CC                                           INT 3 
00003286 CC                                           INT 3 
00003287 CC                                           INT 3 
00003288 CC                                           INT 3 
00003289 CC                                           INT 3 
0000328A CC                                           INT 3 
0000328B CC                                           INT 3 
0000328C CC                                           INT 3 
0000328D CC                                           INT 3 
0000328E CC                                           INT 3 
0000328F CC                                           INT 3 
00003290 CC                                           INT 3 
00003291 CC                                           INT 3 
00003292 CC                                           INT 3 
00003293 CC                                           INT 3 
00003294 CC                                           INT 3 
00003295 CC                                           INT 3 
00003296 CC                                           INT 3 
00003297 CC                                           INT 3 
00003298 CC                                           INT 3 
00003299 CC                                           INT 3 
0000329A CC                                           INT 3 
0000329B CC                                           INT 3 
0000329C CC                                           INT 3 
0000329D CC                                           INT 3 
0000329E CC                                           INT 3 
0000329F CC                                           INT 3 
000032A0 CC                                           INT 3 
000032A1 CC                                           INT 3 
000032A2 CC                                           INT 3 
000032A3 CC                                           INT 3 
000032A4 CC                                           INT 3 
000032A5 CC                                           INT 3 
000032A6 CC                                           INT 3 
000032A7 CC                                           INT 3 
000032A8 CC                                           INT 3 
000032A9 CC                                           INT 3 
000032AA CC                                           INT 3 
000032AB CC                                           INT 3 
000032AC CC                                           INT 3 
000032AD CC                                           INT 3 
000032AE CC                                           INT 3 
000032AF CC                                           INT 3 
000032B0 CC                                           INT 3 
000032B1 CC                                           INT 3 
000032B2 CC                                           INT 3 
000032B3 CC                                           INT 3 
000032B4 CC                                           INT 3 
000032B5 CC                                           INT 3 
000032B6 CC                                           INT 3 
000032B7 CC                                           INT 3 
000032B8 CC                                           INT 3 
000032B9 CC                                           INT 3 
000032BA CC                                           INT 3 
000032BB CC                                           INT 3 
000032BC CC                                           INT 3 
000032BD CC                                           INT 3 
000032BE CC                                           INT 3 
000032BF CC                                           INT 3 
000032C0 CC                                           INT 3 
000032C1 CC                                           INT 3 
000032C2 CC                                           INT 3 
000032C3 CC                                           INT 3 
000032C4 CC                                           INT 3 
000032C5 CC                                           INT 3 
000032C6 CC                                           INT 3 
000032C7 CC                                           INT 3 
000032C8 CC                                           INT 3 
000032C9 CC                                           INT 3 
000032CA CC                                           INT 3 
000032CB CC                                           INT 3 
000032CC CC                                           INT 3 
000032CD CC                                           INT 3 
000032CE CC                                           INT 3 
000032CF CC                                           INT 3 
000032D0 CC                                           INT 3 
000032D1 CC                                           INT 3 
000032D2 CC                                           INT 3 
000032D3 CC                                           INT 3 
000032D4 CC                                           INT 3 
000032D5 CC                                           INT 3 
000032D6 CC                                           INT 3 
000032D7 CC                                           INT 3 
000032D8 CC                                           INT 3 
000032D9 CC                                           INT 3 
000032DA CC                                           INT 3 
000032DB CC                                           INT 3 
000032DC CC                                           INT 3 
000032DD CC                                           INT 3 
000032DE CC                                           INT 3 
000032DF CC                                           INT 3 
000032E0 CC                                           INT 3 
000032E1 CC                                           INT 3 
000032E2 CC                                           INT 3 
000032E3 CC                                           INT 3 
000032E4 CC                                           INT 3 
000032E5 CC                                           INT 3 
000032E6 CC                                           INT 3 
000032E7 CC                                           INT 3 
000032E8 CC                                           INT 3 
000032E9 CC                                           INT 3 
000032EA CC                                           INT 3 
000032EB CC                                           INT 3 
000032EC CC                                           INT 3 
000032ED CC                                           INT 3 
000032EE CC                                           INT 3 
000032EF CC                                           INT 3 
000032F0 CC                                           INT 3 
000032F1 CC                                           INT 3 
000032F2 CC                                           INT 3 
000032F3 CC                                           INT 3 
000032F4 CC                                           INT 3 
000032F5 CC                                           INT 3 
000032F6 CC                                           INT 3 
000032F7 CC                                           INT 3 
000032F8 CC                                           INT 3 
000032F9 CC                                           INT 3 
000032FA CC                                           INT 3 
000032FB CC                                           INT 3 
000032FC CC                                           INT 3 
000032FD CC                                           INT 3 
000032FE CC                                           INT 3 
000032FF CC                                           INT 3 
00003300 CC                                           INT 3 
00003301 CC                                           INT 3 
00003302 CC                                           INT 3 
00003303 CC                                           INT 3 
00003304 CC                                           INT 3 
00003305 CC                                           INT 3 
00003306 CC                                           INT 3 
00003307 CC                                           INT 3 
00003308 CC                                           INT 3 
00003309 CC                                           INT 3 
0000330A CC                                           INT 3 
0000330B CC                                           INT 3 
0000330C CC                                           INT 3 
0000330D CC                                           INT 3 
0000330E CC                                           INT 3 
0000330F CC                                           INT 3 
00003310 CC                                           INT 3 
00003311 CC                                           INT 3 
00003312 CC                                           INT 3 
00003313 CC                                           INT 3 
00003314 CC                                           INT 3 
00003315 CC                                           INT 3 
00003316 CC                                           INT 3 
00003317 CC                                           INT 3 
00003318 CC                                           INT 3 
00003319 CC                                           INT 3 
0000331A CC                                           INT 3 
0000331B CC                                           INT 3 
0000331C CC                                           INT 3 
0000331D CC                                           INT 3 
0000331E CC                                           INT 3 
0000331F CC                                           INT 3 
00003320 CC                                           INT 3 
00003321 CC                                           INT 3 
00003322 CC                                           INT 3 
00003323 CC                                           INT 3 
00003324 CC                                           INT 3 
00003325 CC                                           INT 3 
00003326 CC                                           INT 3 
00003327 CC                                           INT 3 
00003328 CC                                           INT 3 
00003329 CC                                           INT 3 
0000332A CC                                           INT 3 
0000332B CC                                           INT 3 
0000332C CC                                           INT 3 
0000332D CC                                           INT 3 
0000332E CC                                           INT 3 
0000332F CC                                           INT 3 
00003330 CC                                           INT 3 
00003331 CC                                           INT 3 
00003332 CC                                           INT 3 
00003333 CC                                           INT 3 
00003334 CC                                           INT 3 
00003335 CC                                           INT 3 
00003336 CC                                           INT 3 
00003337 CC                                           INT 3 
00003338 CC                                           INT 3 
00003339 CC                                           INT 3 
0000333A CC                                           INT 3 
0000333B CC                                           INT 3 
0000333C CC                                           INT 3 
0000333D CC                                           INT 3 
0000333E CC                                           INT 3 
0000333F CC                                           INT 3 
00003340 CC                                           INT 3 
00003341 CC                                           INT 3 
00003342 CC                                           INT 3 
00003343 CC                                           INT 3 
00003344 CC                                           INT 3 
00003345 CC                                           INT 3 
00003346 CC                                           INT 3 
00003347 CC                                           INT 3 
00003348 CC                                           INT 3 
00003349 CC                                           INT 3 
0000334A CC                                           INT 3 
0000334B CC                                           INT 3 
0000334C CC                                           INT 3 
0000334D CC                                           INT 3 
0000334E CC                                           INT 3 
0000334F CC                                           INT 3 
00003350 CC                                           INT 3 
00003351 CC                                           INT 3 
00003352 CC                                           INT 3 
00003353 CC                                           INT 3 
00003354 CC                                           INT 3 
00003355 CC                                           INT 3 
00003356 CC                                           INT 3 
00003357 CC                                           INT 3 
00003358 CC                                           INT 3 
00003359 CC                                           INT 3 
0000335A CC                                           INT 3 
0000335B CC                                           INT 3 
0000335C CC                                           INT 3 
0000335D CC                                           INT 3 
0000335E CC                                           INT 3 
0000335F CC                                           INT 3 
00003360 CC                                           INT 3 
00003361 CC                                           INT 3 
00003362 CC                                           INT 3 
00003363 CC                                           INT 3 
00003364 CC                                           INT 3 
00003365 CC                                           INT 3 
00003366 CC                                           INT 3 
00003367 CC                                           INT 3 
00003368 CC                                           INT 3 
00003369 CC                                           INT 3 
0000336A CC                                           INT 3 
0000336B CC                                           INT 3 
0000336C CC                                           INT 3 
0000336D CC                                           INT 3 
0000336E CC                                           INT 3 
0000336F CC                                           INT 3 
00003370 CC                                           INT 3 
00003371 CC                                           INT 3 
00003372 CC                                           INT 3 
00003373 CC                                           INT 3 
00003374 CC                                           INT 3 
00003375 CC                                           INT 3 
00003376 CC                                           INT 3 
00003377 CC                                           INT 3 
00003378 CC                                           INT 3 
00003379 CC                                           INT 3 
0000337A CC                                           INT 3 
0000337B CC                                           INT 3 
0000337C CC                                           INT 3 
0000337D CC                                           INT 3 
0000337E CC                                           INT 3 
0000337F CC                                           INT 3 
00003380 CC                                           INT 3 
00003381 CC                                           INT 3 
00003382 CC                                           INT 3 
00003383 CC                                           INT 3 
00003384 CC                                           INT 3 
00003385 CC                                           INT 3 
00003386 CC                                           INT 3 
00003387 CC                                           INT 3 
00003388 CC                                           INT 3 
00003389 CC                                           INT 3 
0000338A CC                                           INT 3 
0000338B CC                                           INT 3 
0000338C CC                                           INT 3 
0000338D CC                                           INT 3 
0000338E CC                                           INT 3 
0000338F CC                                           INT 3 
00003390 CC                                           INT 3 
00003391 CC                                           INT 3 
00003392 CC                                           INT 3 
00003393 CC                                           INT 3 
00003394 CC                                           INT 3 
00003395 CC                                           INT 3 
00003396 CC                                           INT 3 
00003397 CC                                           INT 3 
00003398 CC                                           INT 3 
00003399 CC                                           INT 3 
0000339A CC                                           INT 3 
0000339B CC                                           INT 3 
0000339C CC                                           INT 3 
0000339D CC                                           INT 3 
0000339E CC                                           INT 3 
0000339F CC                                           INT 3 
000033A0 CC                                           INT 3 
000033A1 CC                                           INT 3 
000033A2 CC                                           INT 3 
000033A3 CC                                           INT 3 
000033A4 CC                                           INT 3 
000033A5 CC                                           INT 3 
000033A6 CC                                           INT 3 
000033A7 CC                                           INT 3 
000033A8 CC                                           INT 3 
000033A9 CC                                           INT 3 
000033AA CC                                           INT 3 
000033AB CC                                           INT 3 
000033AC CC                                           INT 3 
000033AD CC                                           INT 3 
000033AE CC                                           INT 3 
000033AF CC                                           INT 3 
000033B0 CC                                           INT 3 
000033B1 CC                                           INT 3 
000033B2 CC                                           INT 3 
000033B3 CC                                           INT 3 
000033B4 CC                                           INT 3 
000033B5 CC                                           INT 3 
000033B6 CC                                           INT 3 
000033B7 CC                                           INT 3 
000033B8 CC                                           INT 3 
000033B9 CC                                           INT 3 
000033BA CC                                           INT 3 
000033BB CC                                           INT 3 
000033BC CC                                           INT 3 
000033BD CC                                           INT 3 
000033BE CC                                           INT 3 
000033BF CC                                           INT 3 
000033C0 CC                                           INT 3 
000033C1 CC                                           INT 3 
000033C2 CC                                           INT 3 
000033C3 CC                                           INT 3 
000033C4 CC                                           INT 3 
000033C5 CC                                           INT 3 
000033C6 CC                                           INT 3 
000033C7 CC                                           INT 3 
000033C8 CC                                           INT 3 
000033C9 CC                                           INT 3 
000033CA CC                                           INT 3 
000033CB CC                                           INT 3 
000033CC CC                                           INT 3 
000033CD CC                                           INT 3 
000033CE CC                                           INT 3 
000033CF CC                                           INT 3 
000033D0 CC                                           INT 3 
000033D1 CC                                           INT 3 
000033D2 CC                                           INT 3 
000033D3 CC                                           INT 3 
000033D4 CC                                           INT 3 
000033D5 CC                                           INT 3 
000033D6 CC                                           INT 3 
000033D7 CC                                           INT 3 
000033D8 CC                                           INT 3 
000033D9 CC                                           INT 3 
000033DA CC                                           INT 3 
000033DB CC                                           INT 3 
000033DC CC                                           INT 3 
000033DD CC                                           INT 3 
000033DE CC                                           INT 3 
000033DF CC                                           INT 3 
000033E0 CC                                           INT 3 
000033E1 CC                                           INT 3 
000033E2 CC                                           INT 3 
000033E3 CC                                           INT 3 
000033E4 CC                                           INT 3 
000033E5 CC                                           INT 3 
000033E6 CC                                           INT 3 
000033E7 CC                                           INT 3 
000033E8 CC                                           INT 3 
000033E9 CC                                           INT 3 
000033EA CC                                           INT 3 
000033EB CC                                           INT 3 
000033EC CC                                           INT 3 
000033ED CC                                           INT 3 
000033EE CC                                           INT 3 
000033EF CC                                           INT 3 
000033F0 CC                                           INT 3 
000033F1 CC                                           INT 3 
000033F2 CC                                           INT 3 
000033F3 CC                                           INT 3 
000033F4 CC                                           INT 3 
000033F5 CC                                           INT 3 
000033F6 CC                                           INT 3 
000033F7 CC                                           INT 3 
000033F8 CC                                           INT 3 
000033F9 CC                                           INT 3 
000033FA CC                                           INT 3 
000033FB CC                                           INT 3 
000033FC CC                                           INT 3 
000033FD CC                                           INT 3 
000033FE CC                                           INT 3 
000033FF CC                                           INT 3 
00003400 CC                                           INT 3 
00003401 CC                                           INT 3 
00003402 CC                                           INT 3 
00003403 CC                                           INT 3 
00003404 CC                                           INT 3 
00003405 CC                                           INT 3 
00003406 CC                                           INT 3 
00003407 CC                                           INT 3 
00003408 CC                                           INT 3 
00003409 CC                                           INT 3 
0000340A CC                                           INT 3 
0000340B CC                                           INT 3 
0000340C CC                                           INT 3 
0000340D CC                                           INT 3 
0000340E CC                                           INT 3 
0000340F CC                                           INT 3 
00003410 CC                                           INT 3 
00003411 CC                                           INT 3 
00003412 CC                                           INT 3 
00003413 CC                                           INT 3 
00003414 CC                                           INT 3 
00003415 CC                                           INT 3 
00003416 CC                                           INT 3 
00003417 CC                                           INT 3 
00003418 CC                                           INT 3 
00003419 CC                                           INT 3 
0000341A CC                                           INT 3 
0000341B CC                                           INT 3 
0000341C CC                                           INT 3 
0000341D CC                                           INT 3 
0000341E CC                                           INT 3 
0000341F CC                                           INT 3 
00003420 CC                                           INT 3 
00003421 CC                                           INT 3 
00003422 CC                                           INT 3 
00003423 CC                                           INT 3 
00003424 CC                                           INT 3 
00003425 CC                                           INT 3 
00003426 CC                                           INT 3 
00003427 CC                                           INT 3 
00003428 CC                                           INT 3 
00003429 CC                                           INT 3 
0000342A CC                                           INT 3 
0000342B CC                                           INT 3 
0000342C CC                                           INT 3 
0000342D CC                                           INT 3 
0000342E CC                                           INT 3 
0000342F CC                                           INT 3 
00003430 CC                                           INT 3 
00003431 CC                                           INT 3 
00003432 CC                                           INT 3 
00003433 CC                                           INT 3 
00003434 CC                                           INT 3 
00003435 CC                                           INT 3 
00003436 CC                                           INT 3 
00003437 CC                                           INT 3 
00003438 CC                                           INT 3 
00003439 CC                                           INT 3 
0000343A CC                                           INT 3 
0000343B CC                                           INT 3 
0000343C CC                                           INT 3 
0000343D CC                                           INT 3 
0000343E CC                                           INT 3 
0000343F CC                                           INT 3 
00003440 CC                                           INT 3 
00003441 CC                                           INT 3 
00003442 CC                                           INT 3 
00003443 CC                                           INT 3 
00003444 CC                                           INT 3 
00003445 CC                                           INT 3 
00003446 CC                                           INT 3 
00003447 CC                                           INT 3 
00003448 CC                                           INT 3 
00003449 CC                                           INT 3 
0000344A CC                                           INT 3 
0000344B CC                                           INT 3 
0000344C CC                                           INT 3 
0000344D CC                                           INT 3 
0000344E CC                                           INT 3 
0000344F CC                                           INT 3 
00003450 CC                                           INT 3 
00003451 CC                                           INT 3 
00003452 CC                                           INT 3 
00003453 CC                                           INT 3 
00003454 CC                                           INT 3 
00003455 CC                                           INT 3 
00003456 CC                                           INT 3 
00003457 CC                                           INT 3 
00003458 CC                                           INT 3 
00003459 CC                                           INT 3 
0000345A CC                                           INT 3 
0000345B CC                                           INT 3 
0000345C CC                                           INT 3 
0000345D CC                                           INT 3 
0000345E CC                                           INT 3 
0000345F CC                                           INT 3 
00003460 CC                                           INT 3 
00003461 CC                                           INT 3 
00003462 CC                                           INT 3 
00003463 CC                                           INT 3 
00003464 CC                                           INT 3 
00003465 CC                                           INT 3 
00003466 CC                                           INT 3 
00003467 CC                                           INT 3 
00003468 CC                                           INT 3 
00003469 CC                                           INT 3 
0000346A CC                                           INT 3 
0000346B CC                                           INT 3 
0000346C CC                                           INT 3 
0000346D CC                                           INT 3 
0000346E CC                                           INT 3 
0000346F CC                                           INT 3 
00003470 CC                                           INT 3 
00003471 CC                                           INT 3 
00003472 CC                                           INT 3 
00003473 CC                                           INT 3 
00003474 CC                                           INT 3 
00003475 CC                                           INT 3 
00003476 CC                                           INT 3 
00003477 CC                                           INT 3 
00003478 CC                                           INT 3 
00003479 CC                                           INT 3 
0000347A CC                                           INT 3 
0000347B CC                                           INT 3 
0000347C CC                                           INT 3 
0000347D CC                                           INT 3 
0000347E CC                                           INT 3 
0000347F CC                                           INT 3 
00003480 CC                                           INT 3 
00003481 CC                                           INT 3 
00003482 CC                                           INT 3 
00003483 CC                                           INT 3 
00003484 CC                                           INT 3 
00003485 CC                                           INT 3 
00003486 CC                                           INT 3 
00003487 CC                                           INT 3 
00003488 CC                                           INT 3 
00003489 CC                                           INT 3 
0000348A CC                                           INT 3 
0000348B CC                                           INT 3 
0000348C CC                                           INT 3 
0000348D CC                                           INT 3 
0000348E CC                                           INT 3 
0000348F CC                                           INT 3 
00003490 CC                                           INT 3 
00003491 CC                                           INT 3 
00003492 CC                                           INT 3 
00003493 CC                                           INT 3 
00003494 CC                                           INT 3 
00003495 CC                                           INT 3 
00003496 CC                                           INT 3 
00003497 CC                                           INT 3 
00003498 CC                                           INT 3 
00003499 CC                                           INT 3 
0000349A CC                                           INT 3 
0000349B CC                                           INT 3 
0000349C CC                                           INT 3 
0000349D CC                                           INT 3 
0000349E CC                                           INT 3 
0000349F CC                                           INT 3 
000034A0 CC                                           INT 3 
000034A1 CC                                           INT 3 
000034A2 CC                                           INT 3 
000034A3 CC                                           INT 3 
000034A4 CC                                           INT 3 
000034A5 CC                                           INT 3 
000034A6 CC                                           INT 3 
000034A7 CC                                           INT 3 
000034A8 CC                                           INT 3 
000034A9 CC                                           INT 3 
000034AA CC                                           INT 3 
000034AB CC                                           INT 3 
000034AC CC                                           INT 3 
000034AD CC                                           INT 3 
000034AE CC                                           INT 3 
000034AF CC                                           INT 3 
000034B0 CC                                           INT 3 
000034B1 CC                                           INT 3 
000034B2 CC                                           INT 3 
000034B3 CC                                           INT 3 
000034B4 CC                                           INT 3 
000034B5 CC                                           INT 3 
000034B6 CC                                           INT 3 
000034B7 CC                                           INT 3 
000034B8 CC                                           INT 3 
000034B9 CC                                           INT 3 
000034BA CC                                           INT 3 
000034BB CC                                           INT 3 
000034BC CC                                           INT 3 
000034BD CC                                           INT 3 
000034BE CC                                           INT 3 
000034BF CC                                           INT 3 
000034C0 CC                                           INT 3 
000034C1 CC                                           INT 3 
000034C2 CC                                           INT 3 
000034C3 CC                                           INT 3 
000034C4 CC                                           INT 3 
000034C5 CC                                           INT 3 
000034C6 CC                                           INT 3 
000034C7 CC                                           INT 3 
000034C8 CC                                           INT 3 
000034C9 CC                                           INT 3 
000034CA CC                                           INT 3 
000034CB CC                                           INT 3 
000034CC CC                                           INT 3 
000034CD CC                                           INT 3 
000034CE CC                                           INT 3 
000034CF CC                                           INT 3 
000034D0 CC                                           INT 3 
000034D1 CC                                           INT 3 
000034D2 CC                                           INT 3 
000034D3 CC                                           INT 3 
000034D4 CC                                           INT 3 
000034D5 CC                                           INT 3 
000034D6 CC                                           INT 3 
000034D7 CC                                           INT 3 
000034D8 CC                                           INT 3 
000034D9 CC                                           INT 3 
000034DA CC                                           INT 3 
000034DB CC                                           INT 3 
000034DC CC                                           INT 3 
000034DD CC                                           INT 3 
000034DE CC                                           INT 3 
000034DF CC                                           INT 3 
000034E0 CC                                           INT 3 
000034E1 CC                                           INT 3 
000034E2 CC                                           INT 3 
000034E3 CC                                           INT 3 
000034E4 CC                                           INT 3 
000034E5 CC                                           INT 3 
000034E6 CC                                           INT 3 
000034E7 CC                                           INT 3 
000034E8 CC                                           INT 3 
000034E9 CC                                           INT 3 
000034EA CC                                           INT 3 
000034EB CC                                           INT 3 
000034EC CC                                           INT 3 
000034ED CC                                           INT 3 
000034EE CC                                           INT 3 
000034EF CC                                           INT 3 
000034F0 CC                                           INT 3 
000034F1 CC                                           INT 3 
000034F2 CC                                           INT 3 
000034F3 CC                                           INT 3 
000034F4 CC                                           INT 3 
000034F5 CC                                           INT 3 
000034F6 CC                                           INT 3 
000034F7 CC                                           INT 3 
000034F8 CC                                           INT 3 
000034F9 CC                                           INT 3 
000034FA CC                                           INT 3 
000034FB CC                                           INT 3 
000034FC CC                                           INT 3 
000034FD CC                                           INT 3 
000034FE CC                                           INT 3 
000034FF CC                                           INT 3 
00003500 CC                                           INT 3 
00003501 CC                                           INT 3 
00003502 CC                                           INT 3 
00003503 CC                                           INT 3 
00003504 CC                                           INT 3 
00003505 CC                                           INT 3 
00003506 CC                                           INT 3 
00003507 CC                                           INT 3 
00003508 CC                                           INT 3 
00003509 CC                                           INT 3 
0000350A CC                                           INT 3 
0000350B CC                                           INT 3 
0000350C CC                                           INT 3 
0000350D CC                                           INT 3 
0000350E CC                                           INT 3 
0000350F CC                                           INT 3 
00003510 CC                                           INT 3 
00003511 CC                                           INT 3 
00003512 CC                                           INT 3 
00003513 CC                                           INT 3 
00003514 CC                                           INT 3 
00003515 CC                                           INT 3 
00003516 CC                                           INT 3 
00003517 CC                                           INT 3 
00003518 CC                                           INT 3 
00003519 CC                                           INT 3 
0000351A CC                                           INT 3 
0000351B CC                                           INT 3 
0000351C CC                                           INT 3 
0000351D CC                                           INT 3 
0000351E CC                                           INT 3 
0000351F CC                                           INT 3 
00003520 CC                                           INT 3 
00003521 CC                                           INT 3 
00003522 CC                                           INT 3 
00003523 CC                                           INT 3 
00003524 CC                                           INT 3 
00003525 CC                                           INT 3 
00003526 CC                                           INT 3 
00003527 CC                                           INT 3 
00003528 CC                                           INT 3 
00003529 CC                                           INT 3 
0000352A CC                                           INT 3 
0000352B CC                                           INT 3 
0000352C CC                                           INT 3 
0000352D CC                                           INT 3 
0000352E CC                                           INT 3 
0000352F CC                                           INT 3 
00003530 CC                                           INT 3 
00003531 CC                                           INT 3 
00003532 CC                                           INT 3 
00003533 CC                                           INT 3 
00003534 CC                                           INT 3 
00003535 CC                                           INT 3 
00003536 CC                                           INT 3 
00003537 CC                                           INT 3 
00003538 CC                                           INT 3 
00003539 CC                                           INT 3 
0000353A CC                                           INT 3 
0000353B CC                                           INT 3 
0000353C CC                                           INT 3 
0000353D CC                                           INT 3 
0000353E CC                                           INT 3 
0000353F CC                                           INT 3 
00003540 CC                                           INT 3 
00003541 CC                                           INT 3 
00003542 CC                                           INT 3 
00003543 CC                                           INT 3 
00003544 CC                                           INT 3 
00003545 CC                                           INT 3 
00003546 CC                                           INT 3 
00003547 CC                                           INT 3 
00003548 CC                                           INT 3 
00003549 CC                                           INT 3 
0000354A CC                                           INT 3 
0000354B CC                                           INT 3 
0000354C CC                                           INT 3 
0000354D CC                                           INT 3 
0000354E CC                                           INT 3 
0000354F CC                                           INT 3 
00003550 CC                                           INT 3 
00003551 CC                                           INT 3 
00003552 CC                                           INT 3 
00003553 CC                                           INT 3 
00003554 CC                                           INT 3 
00003555 CC                                           INT 3 
00003556 CC                                           INT 3 
00003557 CC                                           INT 3 
00003558 CC                                           INT 3 
00003559 CC                                           INT 3 
0000355A CC                                           INT 3 
0000355B CC                                           INT 3 
0000355C CC                                           INT 3 
0000355D CC                                           INT 3 
0000355E CC                                           INT 3 
0000355F CC                                           INT 3 
00003560 CC                                           INT 3 
00003561 CC                                           INT 3 
00003562 CC                                           INT 3 
00003563 CC                                           INT 3 
00003564 CC                                           INT 3 
00003565 CC                                           INT 3 
00003566 CC                                           INT 3 
00003567 CC                                           INT 3 
00003568 CC                                           INT 3 
00003569 CC                                           INT 3 
0000356A CC                                           INT 3 
0000356B CC                                           INT 3 
0000356C CC                                           INT 3 
0000356D CC                                           INT 3 
0000356E CC                                           INT 3 
0000356F CC                                           INT 3 
00003570 CC                                           INT 3 
00003571 CC                                           INT 3 
00003572 CC                                           INT 3 
00003573 CC                                           INT 3 
00003574 CC                                           INT 3 
00003575 CC                                           INT 3 
00003576 CC                                           INT 3 
00003577 CC                                           INT 3 
00003578 CC                                           INT 3 
00003579 CC                                           INT 3 
0000357A CC                                           INT 3 
0000357B CC                                           INT 3 
0000357C CC                                           INT 3 
0000357D CC                                           INT 3 
0000357E CC                                           INT 3 
0000357F CC                                           INT 3 
00003580 CC                                           INT 3 
00003581 CC                                           INT 3 
00003582 CC                                           INT 3 
00003583 CC                                           INT 3 
00003584 CC                                           INT 3 
00003585 CC                                           INT 3 
00003586 CC                                           INT 3 
00003587 CC                                           INT 3 
00003588 CC                                           INT 3 
00003589 CC                                           INT 3 
0000358A CC                                           INT 3 
0000358B CC                                           INT 3 
0000358C CC                                           INT 3 
0000358D CC                                           INT 3 
0000358E CC                                           INT 3 
0000358F CC                                           INT 3 
00003590 CC                                           INT 3 
00003591 CC                                           INT 3 
00003592 CC                                           INT 3 
00003593 CC                                           INT 3 
00003594 CC                                           INT 3 
00003595 CC                                           INT 3 
00003596 CC                                           INT 3 
00003597 CC                                           INT 3 
00003598 CC                                           INT 3 
00003599 CC                                           INT 3 
0000359A CC                                           INT 3 
0000359B CC                                           INT 3 
0000359C CC                                           INT 3 
0000359D CC                                           INT 3 
0000359E CC                                           INT 3 
0000359F CC                                           INT 3 
000035A0 CC                                           INT 3 
000035A1 CC                                           INT 3 
000035A2 CC                                           INT 3 
000035A3 CC                                           INT 3 
000035A4 CC                                           INT 3 
000035A5 CC                                           INT 3 
000035A6 CC                                           INT 3 
000035A7 CC                                           INT 3 
000035A8 CC                                           INT 3 
000035A9 CC                                           INT 3 
000035AA CC                                           INT 3 
000035AB CC                                           INT 3 
000035AC CC                                           INT 3 
000035AD CC                                           INT 3 
000035AE CC                                           INT 3 
000035AF CC                                           INT 3 
000035B0 CC                                           INT 3 
000035B1 CC                                           INT 3 
000035B2 CC                                           INT 3 
000035B3 CC                                           INT 3 
000035B4 CC                                           INT 3 
000035B5 CC                                           INT 3 
000035B6 CC                                           INT 3 
000035B7 CC                                           INT 3 
000035B8 CC                                           INT 3 
000035B9 CC                                           INT 3 
000035BA CC                                           INT 3 
000035BB CC                                           INT 3 
000035BC CC                                           INT 3 
000035BD CC                                           INT 3 
000035BE CC                                           INT 3 
000035BF CC                                           INT 3 
000035C0 CC                                           INT 3 
000035C1 CC                                           INT 3 
000035C2 CC                                           INT 3 
000035C3 CC                                           INT 3 
000035C4 CC                                           INT 3 
000035C5 CC                                           INT 3 
000035C6 CC                                           INT 3 
000035C7 CC                                           INT 3 
000035C8 CC                                           INT 3 
000035C9 CC                                           INT 3 
000035CA CC                                           INT 3 
000035CB CC                                           INT 3 
000035CC CC                                           INT 3 
000035CD CC                                           INT 3 
000035CE CC                                           INT 3 
000035CF CC                                           INT 3 
000035D0 CC                                           INT 3 
000035D1 CC                                           INT 3 
000035D2 CC                                           INT 3 
000035D3 CC                                           INT 3 
000035D4 CC                                           INT 3 
000035D5 CC                                           INT 3 
000035D6 CC                                           INT 3 
000035D7 CC                                           INT 3 
000035D8 CC                                           INT 3 
000035D9 CC                                           INT 3 
000035DA CC                                           INT 3 
000035DB CC                                           INT 3 
000035DC CC                                           INT 3 
000035DD CC                                           INT 3 
000035DE CC                                           INT 3 
000035DF CC                                           INT 3 
000035E0 CC                                           INT 3 
000035E1 CC                                           INT 3 
000035E2 CC                                           INT 3 
000035E3 CC                                           INT 3 
000035E4 CC                                           INT 3 
000035E5 CC                                           INT 3 
000035E6 CC                                           INT 3 
000035E7 CC                                           INT 3 
000035E8 CC                                           INT 3 
000035E9 CC                                           INT 3 
000035EA CC                                           INT 3 
000035EB CC                                           INT 3 
000035EC CC                                           INT 3 
000035ED CC                                           INT 3 
000035EE CC                                           INT 3 
000035EF CC                                           INT 3 
000035F0 CC                                           INT 3 
000035F1 CC                                           INT 3 
000035F2 CC                                           INT 3 
000035F3 CC                                           INT 3 
000035F4 CC                                           INT 3 
000035F5 CC                                           INT 3 
000035F6 CC                                           INT 3 
000035F7 CC                                           INT 3 
000035F8 CC                                           INT 3 
000035F9 CC                                           INT 3 
000035FA CC                                           INT 3 
000035FB CC                                           INT 3 
000035FC CC                                           INT 3 
000035FD CC                                           INT 3 
000035FE CC                                           INT 3 
000035FF CC                                           INT 3 
00003600 CC                                           INT 3 
00003601 CC                                           INT 3 
00003602 CC                                           INT 3 
00003603 CC                                           INT 3 
00003604 CC                                           INT 3 
00003605 CC                                           INT 3 
00003606 CC                                           INT 3 
00003607 CC                                           INT 3 
00003608 CC                                           INT 3 
00003609 CC                                           INT 3 
0000360A CC                                           INT 3 
0000360B CC                                           INT 3 
0000360C CC                                           INT 3 
0000360D CC                                           INT 3 
0000360E CC                                           INT 3 
0000360F CC                                           INT 3 
00003610 CC                                           INT 3 
00003611 CC                                           INT 3 
00003612 CC                                           INT 3 
00003613 CC                                           INT 3 
00003614 CC                                           INT 3 
00003615 CC                                           INT 3 
00003616 CC                                           INT 3 
00003617 CC                                           INT 3 
00003618 CC                                           INT 3 
00003619 CC                                           INT 3 
0000361A CC                                           INT 3 
0000361B CC                                           INT 3 
0000361C CC                                           INT 3 
0000361D CC                                           INT 3 
0000361E CC                                           INT 3 
0000361F CC                                           INT 3 
00003620 CC                                           INT 3 
00003621 CC                                           INT 3 
00003622 CC                                           INT 3 
00003623 CC                                           INT 3 
00003624 CC                                           INT 3 
00003625 CC                                           INT 3 
00003626 CC                                           INT 3 
00003627 CC                                           INT 3 
00003628 CC                                           INT 3 
00003629 CC                                           INT 3 
0000362A CC                                           INT 3 
0000362B CC                                           INT 3 
0000362C CC                                           INT 3 
0000362D CC                                           INT 3 
0000362E CC                                           INT 3 
0000362F CC                                           INT 3 
00003630 CC                                           INT 3 
00003631 CC                                           INT 3 
00003632 CC                                           INT 3 
00003633 CC                                           INT 3 
00003634 CC                                           INT 3 
00003635 CC                                           INT 3 
00003636 CC                                           INT 3 
00003637 CC                                           INT 3 
00003638 CC                                           INT 3 
00003639 CC                                           INT 3 
0000363A CC                                           INT 3 
0000363B CC                                           INT 3 
0000363C CC                                           INT 3 
0000363D CC                                           INT 3 
0000363E CC                                           INT 3 
0000363F CC                                           INT 3 
00003640 CC                                           INT 3 
00003641 CC                                           INT 3 
00003642 CC                                           INT 3 
00003643 CC                                           INT 3 
00003644 CC                                           INT 3 
00003645 CC                                           INT 3 
00003646 CC                                           INT 3 
00003647 CC                                           INT 3 
00003648 CC                                           INT 3 
00003649 CC                                           INT 3 
0000364A CC                                           INT 3 
0000364B CC                                           INT 3 
0000364C CC                                           INT 3 
0000364D CC                                           INT 3 
0000364E CC                                           INT 3 
0000364F CC                                           INT 3 
00003650 CC                                           INT 3 
00003651 CC                                           INT 3 
00003652 CC                                           INT 3 
00003653 CC                                           INT 3 
00003654 CC                                           INT 3 
00003655 CC                                           INT 3 
00003656 CC                                           INT 3 
00003657 CC                                           INT 3 
00003658 CC                                           INT 3 
00003659 CC                                           INT 3 
0000365A CC                                           INT 3 
0000365B CC                                           INT 3 
0000365C CC                                           INT 3 
0000365D CC                                           INT 3 
0000365E CC                                           INT 3 
0000365F CC                                           INT 3 
00003660 CC                                           INT 3 
00003661 CC                                           INT 3 
00003662 CC                                           INT 3 
00003663 CC                                           INT 3 
00003664 CC                                           INT 3 
00003665 CC                                           INT 3 
00003666 CC                                           INT 3 
00003667 CC                                           INT 3 
00003668 CC                                           INT 3 
00003669 CC                                           INT 3 
0000366A CC                                           INT 3 
0000366B CC                                           INT 3 
0000366C CC                                           INT 3 
0000366D CC                                           INT 3 
0000366E CC                                           INT 3 
0000366F CC                                           INT 3 
00003670 CC                                           INT 3 
00003671 CC                                           INT 3 
00003672 CC                                           INT 3 
00003673 CC                                           INT 3 
00003674 CC                                           INT 3 
00003675 CC                                           INT 3 
00003676 CC                                           INT 3 
00003677 CC                                           INT 3 
00003678 CC                                           INT 3 
00003679 CC                                           INT 3 
0000367A CC                                           INT 3 
0000367B CC                                           INT 3 
0000367C CC                                           INT 3 
0000367D CC                                           INT 3 
0000367E CC                                           INT 3 
0000367F CC                                           INT 3 
00003680 CC                                           INT 3 
00003681 CC                                           INT 3 
00003682 CC                                           INT 3 
00003683 CC                                           INT 3 
00003684 CC                                           INT 3 
00003685 CC                                           INT 3 
00003686 CC                                           INT 3 
00003687 CC                                           INT 3 
00003688 CC                                           INT 3 
00003689 CC                                           INT 3 
0000368A CC                                           INT 3 
0000368B CC                                           INT 3 
0000368C CC                                           INT 3 
0000368D CC                                           INT 3 
0000368E CC                                           INT 3 
0000368F CC                                           INT 3 
00003690 CC                                           INT 3 
00003691 CC                                           INT 3 
00003692 CC                                           INT 3 
00003693 CC                                           INT 3 
00003694 CC                                           INT 3 
00003695 CC                                           INT 3 
00003696 CC                                           INT 3 
00003697 CC                                           INT 3 
00003698 CC                                           INT 3 
00003699 CC                                           INT 3 
0000369A CC                                           INT 3 
0000369B CC                                           INT 3 
0000369C CC                                           INT 3 
0000369D CC                                           INT 3 
0000369E CC                                           INT 3 
0000369F CC                                           INT 3 
000036A0 CC                                           INT 3 
000036A1 CC                                           INT 3 
000036A2 CC                                           INT 3 
000036A3 CC                                           INT 3 
000036A4 CC                                           INT 3 
000036A5 CC                                           INT 3 
000036A6 CC                                           INT 3 
000036A7 CC                                           INT 3 
000036A8 CC                                           INT 3 
000036A9 CC                                           INT 3 
000036AA CC                                           INT 3 
000036AB CC                                           INT 3 
000036AC CC                                           INT 3 
000036AD CC                                           INT 3 
000036AE CC                                           INT 3 
000036AF CC                                           INT 3 
000036B0 CC                                           INT 3 
000036B1 CC                                           INT 3 
000036B2 CC                                           INT 3 
000036B3 CC                                           INT 3 
000036B4 CC                                           INT 3 
000036B5 CC                                           INT 3 
000036B6 CC                                           INT 3 
000036B7 CC                                           INT 3 
000036B8 CC                                           INT 3 
000036B9 CC                                           INT 3 
000036BA CC                                           INT 3 
000036BB CC                                           INT 3 
000036BC CC                                           INT 3 
000036BD CC                                           INT 3 
000036BE CC                                           INT 3 
000036BF CC                                           INT 3 
000036C0 CC                                           INT 3 
000036C1 CC                                           INT 3 
000036C2 CC                                           INT 3 
000036C3 CC                                           INT 3 
000036C4 CC                                           INT 3 
000036C5 CC                                           INT 3 
000036C6 CC                                           INT 3 
000036C7 CC                                           INT 3 
000036C8 CC                                           INT 3 
000036C9 CC                                           INT 3 
000036CA CC                                           INT 3 
000036CB CC                                           INT 3 
000036CC CC                                           INT 3 
000036CD CC                                           INT 3 
000036CE CC                                           INT 3 
000036CF CC                                           INT 3 
000036D0 CC                                           INT 3 
000036D1 CC                                           INT 3 
000036D2 CC                                           INT 3 
000036D3 CC                                           INT 3 
000036D4 CC                                           INT 3 
000036D5 CC                                           INT 3 
000036D6 CC                                           INT 3 
000036D7 CC                                           INT 3 
000036D8 CC                                           INT 3 
000036D9 CC                                           INT 3 
000036DA CC                                           INT 3 
000036DB CC                                           INT 3 
000036DC CC                                           INT 3 
000036DD CC                                           INT 3 
000036DE CC                                           INT 3 
000036DF CC                                           INT 3 
000036E0 CC                                           INT 3 
000036E1 CC                                           INT 3 
000036E2 CC                                           INT 3 
000036E3 CC                                           INT 3 
000036E4 CC                                           INT 3 
000036E5 CC                                           INT 3 
000036E6 CC                                           INT 3 
000036E7 CC                                           INT 3 
000036E8 CC                                           INT 3 
000036E9 CC                                           INT 3 
000036EA CC                                           INT 3 
000036EB CC                                           INT 3 
000036EC CC                                           INT 3 
000036ED CC                                           INT 3 
000036EE CC                                           INT 3 
000036EF CC                                           INT 3 
000036F0 CC                                           INT 3 
000036F1 CC                                           INT 3 
000036F2 CC                                           INT 3 
000036F3 CC                                           INT 3 
000036F4 CC                                           INT 3 
000036F5 CC                                           INT 3 
000036F6 CC                                           INT 3 
000036F7 CC                                           INT 3 
000036F8 CC                                           INT 3 
000036F9 CC                                           INT 3 
000036FA CC                                           INT 3 
000036FB CC                                           INT 3 
000036FC CC                                           INT 3 
000036FD CC                                           INT 3 
000036FE CC                                           INT 3 
000036FF CC                                           INT 3 
00003700 CC                                           INT 3 
00003701 CC                                           INT 3 
00003702 CC                                           INT 3 
00003703 CC                                           INT 3 
00003704 CC                                           INT 3 
00003705 CC                                           INT 3 
00003706 CC                                           INT 3 
00003707 CC                                           INT 3 
00003708 CC                                           INT 3 
00003709 CC                                           INT 3 
0000370A CC                                           INT 3 
0000370B CC                                           INT 3 
0000370C CC                                           INT 3 
0000370D CC                                           INT 3 
0000370E CC                                           INT 3 
0000370F CC                                           INT 3 
00003710 CC                                           INT 3 
00003711 CC                                           INT 3 
00003712 CC                                           INT 3 
00003713 CC                                           INT 3 
00003714 CC                                           INT 3 
00003715 CC                                           INT 3 
00003716 CC                                           INT 3 
00003717 CC                                           INT 3 
00003718 CC                                           INT 3 
00003719 CC                                           INT 3 
0000371A CC                                           INT 3 
0000371B CC                                           INT 3 
0000371C CC                                           INT 3 
0000371D CC                                           INT 3 
0000371E CC                                           INT 3 
0000371F CC                                           INT 3 
00003720 CC                                           INT 3 
00003721 CC                                           INT 3 
00003722 CC                                           INT 3 
00003723 CC                                           INT 3 
00003724 CC                                           INT 3 
00003725 CC                                           INT 3 
00003726 CC                                           INT 3 
00003727 CC                                           INT 3 
00003728 CC                                           INT 3 
00003729 CC                                           INT 3 
0000372A CC                                           INT 3 
0000372B CC                                           INT 3 
0000372C CC                                           INT 3 
0000372D CC                                           INT 3 
0000372E CC                                           INT 3 
0000372F CC                                           INT 3 
00003730 CC                                           INT 3 
00003731 CC                                           INT 3 
00003732 CC                                           INT 3 
00003733 CC                                           INT 3 
00003734 CC                                           INT 3 
00003735 CC                                           INT 3 
00003736 CC                                           INT 3 
00003737 CC                                           INT 3 
00003738 CC                                           INT 3 
00003739 CC                                           INT 3 
0000373A CC                                           INT 3 
0000373B CC                                           INT 3 
0000373C CC                                           INT 3 
0000373D CC                                           INT 3 
0000373E CC                                           INT 3 
0000373F CC                                           INT 3 
00003740 CC                                           INT 3 
00003741 CC                                           INT 3 
00003742 CC                                           INT 3 
00003743 CC                                           INT 3 
00003744 CC                                           INT 3 
00003745 CC                                           INT 3 
00003746 CC                                           INT 3 
00003747 CC                                           INT 3 
00003748 CC                                           INT 3 
00003749 CC                                           INT 3 
0000374A CC                                           INT 3 
0000374B CC                                           INT 3 
0000374C CC                                           INT 3 
0000374D CC                                           INT 3 
0000374E CC                                           INT 3 
0000374F CC                                           INT 3 
00003750 CC                                           INT 3 
00003751 CC                                           INT 3 
00003752 CC                                           INT 3 
00003753 CC                                           INT 3 
00003754 CC                                           INT 3 
00003755 CC                                           INT 3 
00003756 CC                                           INT 3 
00003757 CC                                           INT 3 
00003758 CC                                           INT 3 
00003759 CC                                           INT 3 
0000375A CC                                           INT 3 
0000375B CC                                           INT 3 
0000375C CC                                           INT 3 
0000375D CC                                           INT 3 
0000375E CC                                           INT 3 
0000375F CC                                           INT 3 
00003760 CC                                           INT 3 
00003761 CC                                           INT 3 
00003762 CC                                           INT 3 
00003763 CC                                           INT 3 
00003764 CC                                           INT 3 
00003765 CC                                           INT 3 
00003766 CC                                           INT 3 
00003767 CC                                           INT 3 
00003768 CC                                           INT 3 
00003769 CC                                           INT 3 
0000376A CC                                           INT 3 
0000376B CC                                           INT 3 
0000376C CC                                           INT 3 
0000376D CC                                           INT 3 
0000376E CC                                           INT 3 
0000376F CC                                           INT 3 
00003770 CC                                           INT 3 
00003771 CC                                           INT 3 
00003772 CC                                           INT 3 
00003773 CC                                           INT 3 
00003774 CC                                           INT 3 
00003775 CC                                           INT 3 
00003776 CC                                           INT 3 
00003777 CC                                           INT 3 
00003778 CC                                           INT 3 
00003779 CC                                           INT 3 
0000377A CC                                           INT 3 
0000377B CC                                           INT 3 
0000377C CC                                           INT 3 
0000377D CC                                           INT 3 
0000377E CC                                           INT 3 
0000377F CC                                           INT 3 
00003780 CC                                           INT 3 
00003781 CC                                           INT 3 
00003782 CC                                           INT 3 
00003783 CC                                           INT 3 
00003784 CC                                           INT 3 
00003785 CC                                           INT 3 
00003786 CC                                           INT 3 
00003787 CC                                           INT 3 
00003788 CC                                           INT 3 
00003789 CC                                           INT 3 
0000378A CC                                           INT 3 
0000378B CC                                           INT 3 
0000378C CC                                           INT 3 
0000378D CC                                           INT 3 
0000378E CC                                           INT 3 
0000378F CC                                           INT 3 
00003790 CC                                           INT 3 
00003791 CC                                           INT 3 
00003792 CC                                           INT 3 
00003793 CC                                           INT 3 
00003794 CC                                           INT 3 
00003795 CC                                           INT 3 
00003796 CC                                           INT 3 
00003797 CC                                           INT 3 
00003798 CC                                           INT 3 
00003799 CC                                           INT 3 
0000379A CC                                           INT 3 
0000379B CC                                           INT 3 
0000379C CC                                           INT 3 
0000379D CC                                           INT 3 
0000379E CC                                           INT 3 
0000379F CC                                           INT 3 
000037A0 CC                                           INT 3 
000037A1 CC                                           INT 3 
000037A2 CC                                           INT 3 
000037A3 CC                                           INT 3 
000037A4 CC                                           INT 3 
000037A5 CC                                           INT 3 
000037A6 CC                                           INT 3 
000037A7 CC                                           INT 3 
000037A8 CC                                           INT 3 
000037A9 CC                                           INT 3 
000037AA CC                                           INT 3 
000037AB CC                                           INT 3 
000037AC CC                                           INT 3 
000037AD CC                                           INT 3 
000037AE CC                                           INT 3 
000037AF CC                                           INT 3 
000037B0 CC                                           INT 3 
000037B1 CC                                           INT 3 
000037B2 CC                                           INT 3 
000037B3 CC                                           INT 3 
000037B4 CC                                           INT 3 
000037B5 CC                                           INT 3 
000037B6 CC                                           INT 3 
000037B7 CC                                           INT 3 
000037B8 CC                                           INT 3 
000037B9 CC                                           INT 3 
000037BA CC                                           INT 3 
000037BB CC                                           INT 3 
000037BC CC                                           INT 3 
000037BD CC                                           INT 3 
000037BE CC                                           INT 3 
000037BF CC                                           INT 3 
000037C0 CC                                           INT 3 
000037C1 CC                                           INT 3 
000037C2 CC                                           INT 3 
000037C3 CC                                           INT 3 
000037C4 CC                                           INT 3 
000037C5 CC                                           INT 3 
000037C6 CC                                           INT 3 
000037C7 CC                                           INT 3 
000037C8 CC                                           INT 3 
000037C9 CC                                           INT 3 
000037CA CC                                           INT 3 
000037CB CC                                           INT 3 
000037CC CC                                           INT 3 
000037CD CC                                           INT 3 
000037CE CC                                           INT 3 
000037CF CC                                           INT 3 
000037D0 CC                                           INT 3 
000037D1 CC                                           INT 3 
000037D2 CC                                           INT 3 
000037D3 CC                                           INT 3 
000037D4 CC                                           INT 3 
000037D5 CC                                           INT 3 
000037D6 CC                                           INT 3 
000037D7 CC                                           INT 3 
000037D8 CC                                           INT 3 
000037D9 CC                                           INT 3 
000037DA CC                                           INT 3 
000037DB CC                                           INT 3 
000037DC CC                                           INT 3 
000037DD CC                                           INT 3 
000037DE CC                                           INT 3 
000037DF CC                                           INT 3 
000037E0 CC                                           INT 3 
000037E1 CC                                           INT 3 
000037E2 CC                                           INT 3 
000037E3 CC                                           INT 3 
000037E4 CC                                           INT 3 
000037E5 CC                                           INT 3 
000037E6 CC                                           INT 3 
000037E7 CC                                           INT 3 
000037E8 CC                                           INT 3 
000037E9 CC                                           INT 3 
000037EA CC                                           INT 3 
000037EB CC                                           INT 3 
000037EC CC                                           INT 3 
000037ED CC                                           INT 3 
000037EE CC                                           INT 3 
000037EF CC                                           INT 3 
000037F0 CC                                           INT 3 
000037F1 CC                                           INT 3 
000037F2 CC                                           INT 3 
000037F3 CC                                           INT 3 
000037F4 CC                                           INT 3 
000037F5 CC                                           INT 3 
000037F6 CC                                           INT 3 
000037F7 CC                                           INT 3 
000037F8 CC                                           INT 3 
000037F9 CC                                           INT 3 
000037FA CC                                           INT 3 
000037FB CC                                           INT 3 
000037FC CC                                           INT 3 
000037FD CC                                           INT 3 
000037FE CC                                           INT 3 
000037FF CC                                           INT 3 
00003800 CC                                           INT 3 
00003801 CC                                           INT 3 
00003802 CC                                           INT 3 
00003803 CC                                           INT 3 
00003804 CC                                           INT 3 
00003805 CC                                           INT 3 
00003806 CC                                           INT 3 
00003807 CC                                           INT 3 
00003808 CC                                           INT 3 
00003809 CC                                           INT 3 
0000380A CC                                           INT 3 
0000380B CC                                           INT 3 
0000380C CC                                           INT 3 
0000380D CC                                           INT 3 
0000380E CC                                           INT 3 
0000380F CC                                           INT 3 
00003810 CC                                           INT 3 
00003811 CC                                           INT 3 
00003812 CC                                           INT 3 
00003813 CC                                           INT 3 
00003814 CC                                           INT 3 
00003815 CC                                           INT 3 
00003816 CC                                           INT 3 
00003817 CC                                           INT 3 
00003818 CC                                           INT 3 
00003819 CC                                           INT 3 
0000381A CC                                           INT 3 
0000381B CC                                           INT 3 
0000381C CC                                           INT 3 
0000381D CC                                           INT 3 
0000381E CC                                           INT 3 
0000381F CC                                           INT 3 
00003820 CC                                           INT 3 
00003821 CC                                           INT 3 
00003822 CC                                           INT 3 
00003823 CC                                           INT 3 
00003824 CC                                           INT 3 
00003825 CC                                           INT 3 
00003826 CC                                           INT 3 
00003827 CC                                           INT 3 
00003828 CC                                           INT 3 
00003829 CC                                           INT 3 
0000382A CC                                           INT 3 
0000382B CC                                           INT 3 
0000382C CC                                           INT 3 
0000382D CC                                           INT 3 
0000382E CC                                           INT 3 
0000382F CC                                           INT 3 
00003830 CC                                           INT 3 
00003831 CC                                           INT 3 
00003832 CC                                           INT 3 
00003833 CC                                           INT 3 
00003834 CC                                           INT 3 
00003835 CC                                           INT 3 
00003836 CC                                           INT 3 
00003837 CC                                           INT 3 
00003838 CC                                           INT 3 
00003839 CC                                           INT 3 
0000383A CC                                           INT 3 
0000383B CC                                           INT 3 
0000383C CC                                           INT 3 
0000383D CC                                           INT 3 
0000383E CC                                           INT 3 
0000383F CC                                           INT 3 
00003840 CC                                           INT 3 
00003841 CC                                           INT 3 
00003842 CC                                           INT 3 
00003843 CC                                           INT 3 
00003844 CC                                           INT 3 
00003845 CC                                           INT 3 
00003846 CC                                           INT 3 
00003847 CC                                           INT 3 
00003848 CC                                           INT 3 
00003849 CC                                           INT 3 
0000384A CC                                           INT 3 
0000384B CC                                           INT 3 
0000384C CC                                           INT 3 
0000384D CC                                           INT 3 
0000384E CC                                           INT 3 
0000384F CC                                           INT 3 
00003850 CC                                           INT 3 
00003851 CC                                           INT 3 
00003852 CC                                           INT 3 
00003853 CC                                           INT 3 
00003854 CC                                           INT 3 
00003855 CC                                           INT 3 
00003856 CC                                           INT 3 
00003857 CC                                           INT 3 
00003858 CC                                           INT 3 
00003859 CC                                           INT 3 
0000385A CC                                           INT 3 
0000385B CC                                           INT 3 
0000385C CC                                           INT 3 
0000385D CC                                           INT 3 
0000385E CC                                           INT 3 
0000385F CC                                           INT 3 
00003860 CC                                           INT 3 
00003861 CC                                           INT 3 
00003862 CC                                           INT 3 
00003863 CC                                           INT 3 
00003864 CC                                           INT 3 
00003865 CC                                           INT 3 
00003866 CC                                           INT 3 
00003867 CC                                           INT 3 
00003868 CC                                           INT 3 
00003869 CC                                           INT 3 
0000386A CC                                           INT 3 
0000386B CC                                           INT 3 
0000386C CC                                           INT 3 
0000386D CC                                           INT 3 
0000386E CC                                           INT 3 
0000386F CC                                           INT 3 
00003870 CC                                           INT 3 
00003871 CC                                           INT 3 
00003872 CC                                           INT 3 
00003873 CC                                           INT 3 
00003874 CC                                           INT 3 
00003875 CC                                           INT 3 
00003876 CC                                           INT 3 
00003877 CC                                           INT 3 
00003878 CC                                           INT 3 
00003879 CC                                           INT 3 
0000387A CC                                           INT 3 
0000387B CC                                           INT 3 
0000387C CC                                           INT 3 
0000387D CC                                           INT 3 
0000387E CC                                           INT 3 
0000387F CC                                           INT 3 
00003880 CC                                           INT 3 
00003881 CC                                           INT 3 
00003882 CC                                           INT 3 
00003883 CC                                           INT 3 
00003884 CC                                           INT 3 
00003885 CC                                           INT 3 
00003886 CC                                           INT 3 
00003887 CC                                           INT 3 
00003888 CC                                           INT 3 
00003889 CC                                           INT 3 
0000388A CC                                           INT 3 
0000388B CC                                           INT 3 
0000388C CC                                           INT 3 
0000388D CC                                           INT 3 
0000388E CC                                           INT 3 
0000388F CC                                           INT 3 
00003890 CC                                           INT 3 
00003891 CC                                           INT 3 
00003892 CC                                           INT 3 
00003893 CC                                           INT 3 
00003894 CC                                           INT 3 
00003895 CC                                           INT 3 
00003896 CC                                           INT 3 
00003897 CC                                           INT 3 
00003898 CC                                           INT 3 
00003899 CC                                           INT 3 
0000389A CC                                           INT 3 
0000389B CC                                           INT 3 
0000389C CC                                           INT 3 
0000389D CC                                           INT 3 
0000389E CC                                           INT 3 
0000389F CC                                           INT 3 
000038A0 CC                                           INT 3 
000038A1 CC                                           INT 3 
000038A2 CC                                           INT 3 
000038A3 CC                                           INT 3 
000038A4 CC                                           INT 3 
000038A5 CC                                           INT 3 
000038A6 CC                                           INT 3 
000038A7 CC                                           INT 3 
000038A8 CC                                           INT 3 
000038A9 CC                                           INT 3 
000038AA CC                                           INT 3 
000038AB CC                                           INT 3 
000038AC CC                                           INT 3 
000038AD CC                                           INT 3 
000038AE CC                                           INT 3 
000038AF CC                                           INT 3 
000038B0 CC                                           INT 3 
000038B1 CC                                           INT 3 
000038B2 CC                                           INT 3 
000038B3 CC                                           INT 3 
000038B4 CC                                           INT 3 
000038B5 CC                                           INT 3 
000038B6 CC                                           INT 3 
000038B7 CC                                           INT 3 
000038B8 CC                                           INT 3 
000038B9 CC                                           INT 3 
000038BA CC                                           INT 3 
000038BB CC                                           INT 3 
000038BC CC                                           INT 3 
000038BD CC                                           INT 3 
000038BE CC                                           INT 3 
000038BF CC                                           INT 3 
000038C0 CC                                           INT 3 
000038C1 CC                                           INT 3 
000038C2 CC                                           INT 3 
000038C3 CC                                           INT 3 
000038C4 CC                                           INT 3 
000038C5 CC                                           INT 3 
000038C6 CC                                           INT 3 
000038C7 CC                                           INT 3 
000038C8 CC                                           INT 3 
000038C9 CC                                           INT 3 
000038CA CC                                           INT 3 
000038CB CC                                           INT 3 
000038CC CC                                           INT 3 
000038CD CC                                           INT 3 
000038CE CC                                           INT 3 
000038CF CC                                           INT 3 
000038D0 CC                                           INT 3 
000038D1 CC                                           INT 3 
000038D2 CC                                           INT 3 
000038D3 CC                                           INT 3 
000038D4 CC                                           INT 3 
000038D5 CC                                           INT 3 
000038D6 CC                                           INT 3 
000038D7 CC                                           INT 3 
000038D8 CC                                           INT 3 
000038D9 CC                                           INT 3 
000038DA CC                                           INT 3 
000038DB CC                                           INT 3 
000038DC CC                                           INT 3 
000038DD CC                                           INT 3 
000038DE CC                                           INT 3 
000038DF CC                                           INT 3 
000038E0 CC                                           INT 3 
000038E1 CC                                           INT 3 
000038E2 CC                                           INT 3 
000038E3 CC                                           INT 3 
000038E4 CC                                           INT 3 
000038E5 CC                                           INT 3 
000038E6 CC                                           INT 3 
000038E7 CC                                           INT 3 
000038E8 CC                                           INT 3 
000038E9 CC                                           INT 3 
000038EA CC                                           INT 3 
000038EB CC                                           INT 3 
000038EC CC                                           INT 3 
000038ED CC                                           INT 3 
000038EE CC                                           INT 3 
000038EF CC                                           INT 3 
000038F0 CC                                           INT 3 
000038F1 CC                                           INT 3 
000038F2 CC                                           INT 3 
000038F3 CC                                           INT 3 
000038F4 CC                                           INT 3 
000038F5 CC                                           INT 3 
000038F6 CC                                           INT 3 
000038F7 CC                                           INT 3 
000038F8 CC                                           INT 3 
000038F9 CC                                           INT 3 
000038FA CC                                           INT 3 
000038FB CC                                           INT 3 
000038FC CC                                           INT 3 
000038FD CC                                           INT 3 
000038FE CC                                           INT 3 
000038FF CC                                           INT 3 
00003900 CC                                           INT 3 
00003901 CC                                           INT 3 
00003902 CC                                           INT 3 
00003903 CC                                           INT 3 
00003904 CC                                           INT 3 
00003905 CC                                           INT 3 
00003906 CC                                           INT 3 
00003907 CC                                           INT 3 
00003908 CC                                           INT 3 
00003909 CC                                           INT 3 
0000390A CC                                           INT 3 
0000390B CC                                           INT 3 
0000390C CC                                           INT 3 
0000390D CC                                           INT 3 
0000390E CC                                           INT 3 
0000390F CC                                           INT 3 
00003910 CC                                           INT 3 
00003911 CC                                           INT 3 
00003912 CC                                           INT 3 
00003913 CC                                           INT 3 
00003914 CC                                           INT 3 
00003915 CC                                           INT 3 
00003916 CC                                           INT 3 
00003917 CC                                           INT 3 
00003918 CC                                           INT 3 
00003919 CC                                           INT 3 
0000391A CC                                           INT 3 
0000391B CC                                           INT 3 
0000391C CC                                           INT 3 
0000391D CC                                           INT 3 
0000391E CC                                           INT 3 
0000391F CC                                           INT 3 
00003920 CC                                           INT 3 
00003921 CC                                           INT 3 
00003922 CC                                           INT 3 
00003923 CC                                           INT 3 
00003924 CC                                           INT 3 
00003925 CC                                           INT 3 
00003926 CC                                           INT 3 
00003927 CC                                           INT 3 
00003928 CC                                           INT 3 
00003929 CC                                           INT 3 
0000392A CC                                           INT 3 
0000392B CC                                           INT 3 
0000392C CC                                           INT 3 
0000392D CC                                           INT 3 
0000392E CC                                           INT 3 
0000392F CC                                           INT 3 
00003930 CC                                           INT 3 
00003931 CC                                           INT 3 
00003932 CC                                           INT 3 
00003933 CC                                           INT 3 
00003934 CC                                           INT 3 
00003935 CC                                           INT 3 
00003936 CC                                           INT 3 
00003937 CC                                           INT 3 
00003938 CC                                           INT 3 
00003939 CC                                           INT 3 
0000393A CC                                           INT 3 
0000393B CC                                           INT 3 
0000393C CC                                           INT 3 
0000393D CC                                           INT 3 
0000393E CC                                           INT 3 
0000393F CC                                           INT 3 
00003940 CC                                           INT 3 
00003941 CC                                           INT 3 
00003942 CC                                           INT 3 
00003943 CC                                           INT 3 
00003944 CC                                           INT 3 
00003945 CC                                           INT 3 
00003946 CC                                           INT 3 
00003947 CC                                           INT 3 
00003948 CC                                           INT 3 
00003949 CC                                           INT 3 
0000394A CC                                           INT 3 
0000394B CC                                           INT 3 
0000394C CC                                           INT 3 
0000394D CC                                           INT 3 
0000394E CC                                           INT 3 
0000394F CC                                           INT 3 
00003950 CC                                           INT 3 
00003951 CC                                           INT 3 
00003952 CC                                           INT 3 
00003953 CC                                           INT 3 
00003954 CC                                           INT 3 
00003955 CC                                           INT 3 
00003956 CC                                           INT 3 
00003957 CC                                           INT 3 
00003958 CC                                           INT 3 
00003959 CC                                           INT 3 
0000395A CC                                           INT 3 
0000395B CC                                           INT 3 
0000395C CC                                           INT 3 
0000395D CC                                           INT 3 
0000395E CC                                           INT 3 
0000395F CC                                           INT 3 
00003960 CC                                           INT 3 
00003961 CC                                           INT 3 
00003962 CC                                           INT 3 
00003963 CC                                           INT 3 
00003964 CC                                           INT 3 
00003965 CC                                           INT 3 
00003966 CC                                           INT 3 
00003967 CC                                           INT 3 
00003968 CC                                           INT 3 
00003969 CC                                           INT 3 
0000396A CC                                           INT 3 
0000396B CC                                           INT 3 
0000396C CC                                           INT 3 
0000396D CC                                           INT 3 
0000396E CC                                           INT 3 
0000396F CC                                           INT 3 
00003970 CC                                           INT 3 
00003971 CC                                           INT 3 
00003972 CC                                           INT 3 
00003973 CC                                           INT 3 
00003974 CC                                           INT 3 
00003975 CC                                           INT 3 
00003976 CC                                           INT 3 
00003977 CC                                           INT 3 
00003978 CC                                           INT 3 
00003979 CC                                           INT 3 
0000397A CC                                           INT 3 
0000397B CC                                           INT 3 
0000397C CC                                           INT 3 
0000397D CC                                           INT 3 
0000397E CC                                           INT 3 
0000397F CC                                           INT 3 
00003980 CC                                           INT 3 
00003981 CC                                           INT 3 
00003982 CC                                           INT 3 
00003983 CC                                           INT 3 
00003984 CC                                           INT 3 
00003985 CC                                           INT 3 
00003986 CC                                           INT 3 
00003987 CC                                           INT 3 
00003988 CC                                           INT 3 
00003989 CC                                           INT 3 
0000398A CC                                           INT 3 
0000398B CC                                           INT 3 
0000398C CC                                           INT 3 
0000398D CC                                           INT 3 
0000398E CC                                           INT 3 
0000398F CC                                           INT 3 
00003990 CC                                           INT 3 
00003991 CC                                           INT 3 
00003992 CC                                           INT 3 
00003993 CC                                           INT 3 
00003994 CC                                           INT 3 
00003995 CC                                           INT 3 
00003996 CC                                           INT 3 
00003997 CC                                           INT 3 
00003998 CC                                           INT 3 
00003999 CC                                           INT 3 
0000399A CC                                           INT 3 
0000399B CC                                           INT 3 
0000399C CC                                           INT 3 
0000399D CC                                           INT 3 
0000399E CC                                           INT 3 
0000399F CC                                           INT 3 
000039A0 CC                                           INT 3 
000039A1 CC                                           INT 3 
000039A2 CC                                           INT 3 
000039A3 CC                                           INT 3 
000039A4 CC                                           INT 3 
000039A5 CC                                           INT 3 
000039A6 CC                                           INT 3 
000039A7 CC                                           INT 3 
000039A8 CC                                           INT 3 
000039A9 CC                                           INT 3 
000039AA CC                                           INT 3 
000039AB CC                                           INT 3 
000039AC CC                                           INT 3 
000039AD CC                                           INT 3 
000039AE CC                                           INT 3 
000039AF CC                                           INT 3 
000039B0 CC                                           INT 3 
000039B1 CC                                           INT 3 
000039B2 CC                                           INT 3 
000039B3 CC                                           INT 3 
000039B4 CC                                           INT 3 
000039B5 CC                                           INT 3 
000039B6 CC                                           INT 3 
000039B7 CC                                           INT 3 
000039B8 CC                                           INT 3 
000039B9 CC                                           INT 3 
000039BA CC                                           INT 3 
000039BB CC                                           INT 3 
000039BC CC                                           INT 3 
000039BD CC                                           INT 3 
000039BE CC                                           INT 3 
000039BF CC                                           INT 3 
000039C0 CC                                           INT 3 
000039C1 CC                                           INT 3 
000039C2 CC                                           INT 3 
000039C3 CC                                           INT 3 
000039C4 CC                                           INT 3 
000039C5 CC                                           INT 3 
000039C6 CC                                           INT 3 
000039C7 CC                                           INT 3 
000039C8 CC                                           INT 3 
000039C9 CC                                           INT 3 
000039CA CC                                           INT 3 
000039CB CC                                           INT 3 
000039CC CC                                           INT 3 
000039CD CC                                           INT 3 
000039CE CC                                           INT 3 
000039CF CC                                           INT 3 
000039D0 CC                                           INT 3 
000039D1 CC                                           INT 3 
000039D2 CC                                           INT 3 
000039D3 CC                                           INT 3 
000039D4 CC                                           INT 3 
000039D5 CC                                           INT 3 
000039D6 CC                                           INT 3 
000039D7 CC                                           INT 3 
000039D8 CC                                           INT 3 
000039D9 CC                                           INT 3 
000039DA CC                                           INT 3 
000039DB CC                                           INT 3 
000039DC CC                                           INT 3 
000039DD CC                                           INT 3 
000039DE CC                                           INT 3 
000039DF CC                                           INT 3 
000039E0 CC                                           INT 3 
000039E1 CC                                           INT 3 
000039E2 CC                                           INT 3 
000039E3 CC                                           INT 3 
000039E4 CC                                           INT 3 
000039E5 CC                                           INT 3 
000039E6 CC                                           INT 3 
000039E7 CC                                           INT 3 
000039E8 CC                                           INT 3 
000039E9 CC                                           INT 3 
000039EA CC                                           INT 3 
000039EB CC                                           INT 3 
000039EC CC                                           INT 3 
000039ED CC                                           INT 3 
000039EE CC                                           INT 3 
000039EF CC                                           INT 3 
000039F0 CC                                           INT 3 
000039F1 CC                                           INT 3 
000039F2 CC                                           INT 3 
000039F3 CC                                           INT 3 
000039F4 CC                                           INT 3 
000039F5 CC                                           INT 3 
000039F6 CC                                           INT 3 
000039F7 CC                                           INT 3 
000039F8 CC                                           INT 3 
000039F9 CC                                           INT 3 
000039FA CC                                           INT 3 
000039FB CC                                           INT 3 
000039FC CC                                           INT 3 
000039FD CC                                           INT 3 
000039FE CC                                           INT 3 
000039FF CC                                           INT 3 
00003A00 CC                                           INT 3 
00003A01 CC                                           INT 3 
00003A02 CC                                           INT 3 
00003A03 CC                                           INT 3 
00003A04 CC                                           INT 3 
00003A05 CC                                           INT 3 
00003A06 CC                                           INT 3 
00003A07 CC                                           INT 3 
00003A08 CC                                           INT 3 
00003A09 CC                                           INT 3 
00003A0A CC                                           INT 3 
00003A0B CC                                           INT 3 
00003A0C CC                                           INT 3 
00003A0D CC                                           INT 3 
00003A0E CC                                           INT 3 
00003A0F CC                                           INT 3 
00003A10 CC                                           INT 3 
00003A11 CC                                           INT 3 
00003A12 CC                                           INT 3 
00003A13 CC                                           INT 3 
00003A14 CC                                           INT 3 
00003A15 CC                                           INT 3 
00003A16 CC                                           INT 3 
00003A17 CC                                           INT 3 
00003A18 CC                                           INT 3 
00003A19 CC                                           INT 3 
00003A1A CC                                           INT 3 
00003A1B CC                                           INT 3 
00003A1C CC                                           INT 3 
00003A1D CC                                           INT 3 
00003A1E CC                                           INT 3 
00003A1F CC                                           INT 3 
00003A20 CC                                           INT 3 
00003A21 CC                                           INT 3 
00003A22 CC                                           INT 3 
00003A23 CC                                           INT 3 
00003A24 CC                                           INT 3 
00003A25 CC                                           INT 3 
00003A26 CC                                           INT 3 
00003A27 CC                                           INT 3 
00003A28 CC                                           INT 3 
00003A29 CC                                           INT 3 
00003A2A CC                                           INT 3 
00003A2B CC                                           INT 3 
00003A2C CC                                           INT 3 
00003A2D CC                                           INT 3 
00003A2E CC                                           INT 3 
00003A2F CC                                           INT 3 
00003A30 CC                                           INT 3 
00003A31 CC                                           INT 3 
00003A32 CC                                           INT 3 
00003A33 CC                                           INT 3 
00003A34 CC                                           INT 3 
00003A35 CC                                           INT 3 
00003A36 CC                                           INT 3 
00003A37 CC                                           INT 3 
00003A38 CC                                           INT 3 
00003A39 CC                                           INT 3 
00003A3A CC                                           INT 3 
00003A3B CC                                           INT 3 
00003A3C CC                                           INT 3 
00003A3D CC                                           INT 3 
00003A3E CC                                           INT 3 
00003A3F CC                                           INT 3 
00003A40 CC                                           INT 3 
00003A41 CC                                           INT 3 
00003A42 CC                                           INT 3 
00003A43 CC                                           INT 3 
00003A44 CC                                           INT 3 
00003A45 CC                                           INT 3 
00003A46 CC                                           INT 3 
00003A47 CC                                           INT 3 
00003A48 CC                                           INT 3 
00003A49 CC                                           INT 3 
00003A4A CC                                           INT 3 
00003A4B CC                                           INT 3 
00003A4C CC                                           INT 3 
00003A4D CC                                           INT 3 
00003A4E CC                                           INT 3 
00003A4F CC                                           INT 3 
00003A50 CC                                           INT 3 
00003A51 CC                                           INT 3 
00003A52 CC                                           INT 3 
00003A53 CC                                           INT 3 
00003A54 CC                                           INT 3 
00003A55 CC                                           INT 3 
00003A56 CC                                           INT 3 
00003A57 CC                                           INT 3 
00003A58 CC                                           INT 3 
00003A59 CC                                           INT 3 
00003A5A CC                                           INT 3 
00003A5B CC                                           INT 3 
00003A5C CC                                           INT 3 
00003A5D CC                                           INT 3 
00003A5E CC                                           INT 3 
00003A5F CC                                           INT 3 
00003A60 CC                                           INT 3 
00003A61 CC                                           INT 3 
00003A62 CC                                           INT 3 
00003A63 CC                                           INT 3 
00003A64 CC                                           INT 3 
00003A65 CC                                           INT 3 
00003A66 CC                                           INT 3 
00003A67 CC                                           INT 3 
00003A68 CC                                           INT 3 
00003A69 CC                                           INT 3 
00003A6A CC                                           INT 3 
00003A6B CC                                           INT 3 
00003A6C CC                                           INT 3 
00003A6D CC                                           INT 3 
00003A6E CC                                           INT 3 
00003A6F CC                                           INT 3 
00003A70 CC                                           INT 3 
00003A71 CC                                           INT 3 
00003A72 CC                                           INT 3 
00003A73 CC                                           INT 3 
00003A74 CC                                           INT 3 
00003A75 CC                                           INT 3 
00003A76 CC                                           INT 3 
00003A77 CC                                           INT 3 
00003A78 CC                                           INT 3 
00003A79 CC                                           INT 3 
00003A7A CC                                           INT 3 
00003A7B CC                                           INT 3 
00003A7C CC                                           INT 3 
00003A7D CC                                           INT 3 
00003A7E CC                                           INT 3 
00003A7F CC                                           INT 3 
00003A80 CC                                           INT 3 
00003A81 CC                                           INT 3 
00003A82 CC                                           INT 3 
00003A83 CC                                           INT 3 
00003A84 CC                                           INT 3 
00003A85 CC                                           INT 3 
00003A86 CC                                           INT 3 
00003A87 CC                                           INT 3 
00003A88 CC                                           INT 3 
00003A89 CC                                           INT 3 
00003A8A CC                                           INT 3 
00003A8B CC                                           INT 3 
00003A8C CC                                           INT 3 
00003A8D CC                                           INT 3 
00003A8E CC                                           INT 3 
00003A8F CC                                           INT 3 
00003A90 CC                                           INT 3 
00003A91 CC                                           INT 3 
00003A92 CC                                           INT 3 
00003A93 CC                                           INT 3 
00003A94 CC                                           INT 3 
00003A95 CC                                           INT 3 
00003A96 CC                                           INT 3 
00003A97 CC                                           INT 3 
00003A98 CC                                           INT 3 
00003A99 CC                                           INT 3 
00003A9A CC                                           INT 3 
00003A9B CC                                           INT 3 
00003A9C CC                                           INT 3 
00003A9D CC                                           INT 3 
00003A9E CC                                           INT 3 
00003A9F CC                                           INT 3 
00003AA0 CC                                           INT 3 
00003AA1 CC                                           INT 3 
00003AA2 CC                                           INT 3 
00003AA3 CC                                           INT 3 
00003AA4 CC                                           INT 3 
00003AA5 CC                                           INT 3 
00003AA6 CC                                           INT 3 
00003AA7 CC                                           INT 3 
00003AA8 CC                                           INT 3 
00003AA9 CC                                           INT 3 
00003AAA CC                                           INT 3 
00003AAB CC                                           INT 3 
00003AAC CC                                           INT 3 
00003AAD CC                                           INT 3 
00003AAE CC                                           INT 3 
00003AAF CC                                           INT 3 
00003AB0 CC                                           INT 3 
00003AB1 CC                                           INT 3 
00003AB2 CC                                           INT 3 
00003AB3 CC                                           INT 3 
00003AB4 CC                                           INT 3 
00003AB5 CC                                           INT 3 
00003AB6 CC                                           INT 3 
00003AB7 CC                                           INT 3 
00003AB8 CC                                           INT 3 
00003AB9 CC                                           INT 3 
00003ABA CC                                           INT 3 
00003ABB CC                                           INT 3 
00003ABC CC                                           INT 3 
00003ABD CC                                           INT 3 
00003ABE CC                                           INT 3 
00003ABF CC                                           INT 3 
00003AC0 CC                                           INT 3 
00003AC1 CC                                           INT 3 
00003AC2 CC                                           INT 3 
00003AC3 CC                                           INT 3 
00003AC4 CC                                           INT 3 
00003AC5 CC                                           INT 3 
00003AC6 CC                                           INT 3 
00003AC7 CC                                           INT 3 
00003AC8 CC                                           INT 3 
00003AC9 CC                                           INT 3 
00003ACA CC                                           INT 3 
00003ACB CC                                           INT 3 
00003ACC CC                                           INT 3 
00003ACD CC                                           INT 3 
00003ACE CC                                           INT 3 
00003ACF CC                                           INT 3 
00003AD0 CC                                           INT 3 
00003AD1 CC                                           INT 3 
00003AD2 CC                                           INT 3 
00003AD3 CC                                           INT 3 
00003AD4 CC                                           INT 3 
00003AD5 CC                                           INT 3 
00003AD6 CC                                           INT 3 
00003AD7 CC                                           INT 3 
00003AD8 CC                                           INT 3 
00003AD9 CC                                           INT 3 
00003ADA CC                                           INT 3 
00003ADB CC                                           INT 3 
00003ADC CC                                           INT 3 
00003ADD CC                                           INT 3 
00003ADE CC                                           INT 3 
00003ADF CC                                           INT 3 
00003AE0 CC                                           INT 3 
00003AE1 CC                                           INT 3 
00003AE2 CC                                           INT 3 
00003AE3 CC                                           INT 3 
00003AE4 CC                                           INT 3 
00003AE5 CC                                           INT 3 
00003AE6 CC                                           INT 3 
00003AE7 CC                                           INT 3 
00003AE8 CC                                           INT 3 
00003AE9 CC                                           INT 3 
00003AEA CC                                           INT 3 
00003AEB CC                                           INT 3 
00003AEC CC                                           INT 3 
00003AED CC                                           INT 3 
00003AEE CC                                           INT 3 
00003AEF CC                                           INT 3 
00003AF0 CC                                           INT 3 
00003AF1 CC                                           INT 3 
00003AF2 CC                                           INT 3 
00003AF3 CC                                           INT 3 
00003AF4 CC                                           INT 3 
00003AF5 CC                                           INT 3 
00003AF6 CC                                           INT 3 
00003AF7 CC                                           INT 3 
00003AF8 CC                                           INT 3 
00003AF9 CC                                           INT 3 
00003AFA CC                                           INT 3 
00003AFB CC                                           INT 3 
00003AFC CC                                           INT 3 
00003AFD CC                                           INT 3 
00003AFE CC                                           INT 3 
00003AFF CC                                           INT 3 
00003B00 CC                                           INT 3 
00003B01 CC                                           INT 3 
00003B02 CC                                           INT 3 
00003B03 CC                                           INT 3 
00003B04 CC                                           INT 3 
00003B05 CC                                           INT 3 
00003B06 CC                                           INT 3 
00003B07 CC                                           INT 3 
00003B08 CC                                           INT 3 
00003B09 CC                                           INT 3 
00003B0A CC                                           INT 3 
00003B0B CC                                           INT 3 
00003B0C CC                                           INT 3 
00003B0D CC                                           INT 3 
00003B0E CC                                           INT 3 
00003B0F CC                                           INT 3 
00003B10 CC                                           INT 3 
00003B11 CC                                           INT 3 
00003B12 CC                                           INT 3 
00003B13 CC                                           INT 3 
00003B14 CC                                           INT 3 
00003B15 CC                                           INT 3 
00003B16 CC                                           INT 3 
00003B17 CC                                           INT 3 
00003B18 CC                                           INT 3 
00003B19 CC                                           INT 3 
00003B1A CC                                           INT 3 
00003B1B CC                                           INT 3 
00003B1C CC                                           INT 3 
00003B1D CC                                           INT 3 
00003B1E CC                                           INT 3 
00003B1F CC                                           INT 3 
00003B20 CC                                           INT 3 
00003B21 CC                                           INT 3 
00003B22 CC                                           INT 3 
00003B23 CC                                           INT 3 
00003B24 CC                                           INT 3 
00003B25 CC                                           INT 3 
00003B26 CC                                           INT 3 
00003B27 CC                                           INT 3 
00003B28 CC                                           INT 3 
00003B29 CC                                           INT 3 
00003B2A CC                                           INT 3 
00003B2B CC                                           INT 3 
00003B2C CC                                           INT 3 
00003B2D CC                                           INT 3 
00003B2E CC                                           INT 3 
00003B2F CC                                           INT 3 
00003B30 CC                                           INT 3 
00003B31 CC                                           INT 3 
00003B32 CC                                           INT 3 
00003B33 CC                                           INT 3 
00003B34 CC                                           INT 3 
00003B35 CC                                           INT 3 
00003B36 CC                                           INT 3 
00003B37 CC                                           INT 3 
00003B38 CC                                           INT 3 
00003B39 CC                                           INT 3 
00003B3A CC                                           INT 3 
00003B3B CC                                           INT 3 
00003B3C CC                                           INT 3 
00003B3D CC                                           INT 3 
00003B3E CC                                           INT 3 
00003B3F CC                                           INT 3 
00003B40 CC                                           INT 3 
00003B41 CC                                           INT 3 
00003B42 CC                                           INT 3 
00003B43 CC                                           INT 3 
00003B44 CC                                           INT 3 
00003B45 CC                                           INT 3 
00003B46 CC                                           INT 3 
00003B47 CC                                           INT 3 
00003B48 CC                                           INT 3 
00003B49 CC                                           INT 3 
00003B4A CC                                           INT 3 
00003B4B CC                                           INT 3 
00003B4C CC                                           INT 3 
00003B4D CC                                           INT 3 
00003B4E CC                                           INT 3 
00003B4F CC                                           INT 3 
00003B50 CC                                           INT 3 
00003B51 CC                                           INT 3 
00003B52 CC                                           INT 3 
00003B53 CC                                           INT 3 
00003B54 CC                                           INT 3 
00003B55 CC                                           INT 3 
00003B56 CC                                           INT 3 
00003B57 CC                                           INT 3 
00003B58 CC                                           INT 3 
00003B59 CC                                           INT 3 
00003B5A CC                                           INT 3 
00003B5B CC                                           INT 3 
00003B5C CC                                           INT 3 
00003B5D CC                                           INT 3 
00003B5E CC                                           INT 3 
00003B5F CC                                           INT 3 
00003B60 CC                                           INT 3 
00003B61 CC                                           INT 3 
00003B62 CC                                           INT 3 
00003B63 CC                                           INT 3 
00003B64 CC                                           INT 3 
00003B65 CC                                           INT 3 
00003B66 CC                                           INT 3 
00003B67 CC                                           INT 3 
00003B68 CC                                           INT 3 
00003B69 CC                                           INT 3 
00003B6A CC                                           INT 3 
00003B6B CC                                           INT 3 
00003B6C CC                                           INT 3 
00003B6D CC                                           INT 3 
00003B6E CC                                           INT 3 
00003B6F CC                                           INT 3 
00003B70 CC                                           INT 3 
00003B71 CC                                           INT 3 
00003B72 CC                                           INT 3 
00003B73 CC                                           INT 3 
00003B74 CC                                           INT 3 
00003B75 CC                                           INT 3 
00003B76 CC                                           INT 3 
00003B77 CC                                           INT 3 
00003B78 CC                                           INT 3 
00003B79 CC                                           INT 3 
00003B7A CC                                           INT 3 
00003B7B CC                                           INT 3 
00003B7C CC                                           INT 3 
00003B7D CC                                           INT 3 
00003B7E CC                                           INT 3 
00003B7F CC                                           INT 3 
00003B80 CC                                           INT 3 
00003B81 CC                                           INT 3 
00003B82 CC                                           INT 3 
00003B83 CC                                           INT 3 
00003B84 CC                                           INT 3 
00003B85 CC                                           INT 3 
00003B86 CC                                           INT 3 
00003B87 CC                                           INT 3 
00003B88 CC                                           INT 3 
00003B89 CC                                           INT 3 
00003B8A CC                                           INT 3 
00003B8B CC                                           INT 3 
00003B8C CC                                           INT 3 
00003B8D CC                                           INT 3 
00003B8E CC                                           INT 3 
00003B8F CC                                           INT 3 
00003B90 CC                                           INT 3 
00003B91 CC                                           INT 3 
00003B92 CC                                           INT 3 
00003B93 CC                                           INT 3 
00003B94 CC                                           INT 3 
00003B95 CC                                           INT 3 
00003B96 CC                                           INT 3 
00003B97 CC                                           INT 3 
00003B98 CC                                           INT 3 
00003B99 CC                                           INT 3 
00003B9A CC                                           INT 3 
00003B9B CC                                           INT 3 
00003B9C CC                                           INT 3 
00003B9D CC                                           INT 3 
00003B9E CC                                           INT 3 
00003B9F CC                                           INT 3 
00003BA0 CC                                           INT 3 
00003BA1 CC                                           INT 3 
00003BA2 CC                                           INT 3 
00003BA3 CC                                           INT 3 
00003BA4 CC                                           INT 3 
00003BA5 CC                                           INT 3 
00003BA6 CC                                           INT 3 
00003BA7 CC                                           INT 3 
00003BA8 CC                                           INT 3 
00003BA9 CC                                           INT 3 
00003BAA CC                                           INT 3 
00003BAB CC                                           INT 3 
00003BAC CC                                           INT 3 
00003BAD CC                                           INT 3 
00003BAE CC                                           INT 3 
00003BAF CC                                           INT 3 
00003BB0 CC                                           INT 3 
00003BB1 CC                                           INT 3 
00003BB2 CC                                           INT 3 
00003BB3 CC                                           INT 3 
00003BB4 CC                                           INT 3 
00003BB5 CC                                           INT 3 
00003BB6 CC                                           INT 3 
00003BB7 CC                                           INT 3 
00003BB8 CC                                           INT 3 
00003BB9 CC                                           INT 3 
00003BBA CC                                           INT 3 
00003BBB CC                                           INT 3 
00003BBC CC                                           INT 3 
00003BBD CC                                           INT 3 
00003BBE CC                                           INT 3 
00003BBF CC                                           INT 3 
00003BC0 CC                                           INT 3 
00003BC1 CC                                           INT 3 
00003BC2 CC                                           INT 3 
00003BC3 CC                                           INT 3 
00003BC4 CC                                           INT 3 
00003BC5 CC                                           INT 3 
00003BC6 CC                                           INT 3 
00003BC7 CC                                           INT 3 
00003BC8 CC                                           INT 3 
00003BC9 CC                                           INT 3 
00003BCA CC                                           INT 3 
00003BCB CC                                           INT 3 
00003BCC CC                                           INT 3 
00003BCD CC                                           INT 3 
00003BCE CC                                           INT 3 
00003BCF CC                                           INT 3 
00003BD0 CC                                           INT 3 
00003BD1 CC                                           INT 3 
00003BD2 CC                                           INT 3 
00003BD3 CC                                           INT 3 
00003BD4 CC                                           INT 3 
00003BD5 CC                                           INT 3 
00003BD6 CC                                           INT 3 
00003BD7 CC                                           INT 3 
00003BD8 CC                                           INT 3 
00003BD9 CC                                           INT 3 
00003BDA CC                                           INT 3 
00003BDB CC                                           INT 3 
00003BDC CC                                           INT 3 
00003BDD CC                                           INT 3 
00003BDE CC                                           INT 3 
00003BDF CC                                           INT 3 
00003BE0 CC                                           INT 3 
00003BE1 CC                                           INT 3 
00003BE2 CC                                           INT 3 
00003BE3 CC                                           INT 3 
00003BE4 CC                                           INT 3 
00003BE5 CC                                           INT 3 
00003BE6 CC                                           INT 3 
00003BE7 CC                                           INT 3 
00003BE8 CC                                           INT 3 
00003BE9 CC                                           INT 3 
00003BEA CC                                           INT 3 
00003BEB CC                                           INT 3 
00003BEC CC                                           INT 3 
00003BED CC                                           INT 3 
00003BEE CC                                           INT 3 
00003BEF CC                                           INT 3 
00003BF0 CC                                           INT 3 
00003BF1 CC                                           INT 3 
00003BF2 CC                                           INT 3 
00003BF3 CC                                           INT 3 
00003BF4 CC                                           INT 3 
00003BF5 CC                                           INT 3 
00003BF6 CC                                           INT 3 
00003BF7 CC                                           INT 3 
00003BF8 CC                                           INT 3 
00003BF9 CC                                           INT 3 
00003BFA CC                                           INT 3 
00003BFB CC                                           INT 3 
00003BFC CC                                           INT 3 
00003BFD CC                                           INT 3 
00003BFE CC                                           INT 3 
00003BFF CC                                           INT 3 
00003C00 CC                                           INT 3 
00003C01 CC                                           INT 3 
00003C02 CC                                           INT 3 
00003C03 CC                                           INT 3 
00003C04 CC                                           INT 3 
00003C05 CC                                           INT 3 
00003C06 CC                                           INT 3 
00003C07 CC                                           INT 3 
00003C08 CC                                           INT 3 
00003C09 CC                                           INT 3 
00003C0A CC                                           INT 3 
00003C0B CC                                           INT 3 
00003C0C CC                                           INT 3 
00003C0D CC                                           INT 3 
00003C0E CC                                           INT 3 
00003C0F CC                                           INT 3 
00003C10 CC                                           INT 3 
00003C11 CC                                           INT 3 
00003C12 CC                                           INT 3 
00003C13 CC                                           INT 3 
00003C14 CC                                           INT 3 
00003C15 CC                                           INT 3 
00003C16 CC                                           INT 3 
00003C17 CC                                           INT 3 
00003C18 CC                                           INT 3 
00003C19 CC                                           INT 3 
00003C1A CC                                           INT 3 
00003C1B CC                                           INT 3 
00003C1C CC                                           INT 3 
00003C1D CC                                           INT 3 
00003C1E CC                                           INT 3 
00003C1F CC                                           INT 3 
00003C20 CC                                           INT 3 
00003C21 CC                                           INT 3 
00003C22 CC                                           INT 3 
00003C23 CC                                           INT 3 
00003C24 CC                                           INT 3 
00003C25 CC                                           INT 3 
00003C26 CC                                           INT 3 
00003C27 CC                                           INT 3 
00003C28 CC                                           INT 3 
00003C29 CC                                           INT 3 
00003C2A CC                                           INT 3 
00003C2B CC                                           INT 3 
00003C2C CC                                           INT 3 
00003C2D CC                                           INT 3 
00003C2E CC                                           INT 3 
00003C2F CC                                           INT 3 
00003C30 CC                                           INT 3 
00003C31 CC                                           INT 3 
00003C32 CC                                           INT 3 
00003C33 CC                                           INT 3 
00003C34 CC                                           INT 3 
00003C35 CC                                           INT 3 
00003C36 CC                                           INT 3 
00003C37 CC                                           INT 3 
00003C38 CC                                           INT 3 
00003C39 CC                                           INT 3 
00003C3A CC                                           INT 3 
00003C3B CC                                           INT 3 
00003C3C CC                                           INT 3 
00003C3D CC                                           INT 3 
00003C3E CC                                           INT 3 
00003C3F CC                                           INT 3 
00003C40 CC                                           INT 3 
00003C41 CC                                           INT 3 
00003C42 CC                                           INT 3 
00003C43 CC                                           INT 3 
00003C44 CC                                           INT 3 
00003C45 CC                                           INT 3 
00003C46 CC                                           INT 3 
00003C47 CC                                           INT 3 
00003C48 CC                                           INT 3 
00003C49 CC                                           INT 3 
00003C4A CC                                           INT 3 
00003C4B CC                                           INT 3 
00003C4C CC                                           INT 3 
00003C4D CC                                           INT 3 
00003C4E CC                                           INT 3 
00003C4F CC                                           INT 3 
00003C50 CC                                           INT 3 
00003C51 CC                                           INT 3 
00003C52 CC                                           INT 3 
00003C53 CC                                           INT 3 
00003C54 CC                                           INT 3 
00003C55 CC                                           INT 3 
00003C56 CC                                           INT 3 
00003C57 CC                                           INT 3 
00003C58 CC                                           INT 3 
00003C59 CC                                           INT 3 
00003C5A CC                                           INT 3 
00003C5B CC                                           INT 3 
00003C5C CC                                           INT 3 
00003C5D CC                                           INT 3 
00003C5E CC                                           INT 3 
00003C5F CC                                           INT 3 
00003C60 CC                                           INT 3 
00003C61 CC                                           INT 3 
00003C62 CC                                           INT 3 
00003C63 CC                                           INT 3 
00003C64 CC                                           INT 3 
00003C65 CC                                           INT 3 
00003C66 CC                                           INT 3 
00003C67 CC                                           INT 3 
00003C68 CC                                           INT 3 
00003C69 CC                                           INT 3 
00003C6A CC                                           INT 3 
00003C6B CC                                           INT 3 
00003C6C CC                                           INT 3 
00003C6D CC                                           INT 3 
00003C6E CC                                           INT 3 
00003C6F CC                                           INT 3 
00003C70 CC                                           INT 3 
00003C71 CC                                           INT 3 
00003C72 CC                                           INT 3 
00003C73 CC                                           INT 3 
00003C74 CC                                           INT 3 
00003C75 CC                                           INT 3 
00003C76 CC                                           INT 3 
00003C77 CC                                           INT 3 
00003C78 CC                                           INT 3 
00003C79 CC                                           INT 3 
00003C7A CC                                           INT 3 
00003C7B CC                                           INT 3 
00003C7C CC                                           INT 3 
00003C7D CC                                           INT 3 
00003C7E CC                                           INT 3 
00003C7F CC                                           INT 3 
00003C80 CC                                           INT 3 
00003C81 CC                                           INT 3 
00003C82 CC                                           INT 3 
00003C83 CC                                           INT 3 
00003C84 CC                                           INT 3 
00003C85 CC                                           INT 3 
00003C86 CC                                           INT 3 
00003C87 CC                                           INT 3 
00003C88 CC                                           INT 3 
00003C89 CC                                           INT 3 
00003C8A CC                                           INT 3 
00003C8B CC                                           INT 3 
00003C8C CC                                           INT 3 
00003C8D CC                                           INT 3 
00003C8E CC                                           INT 3 
00003C8F CC                                           INT 3 
00003C90 CC                                           INT 3 
00003C91 CC                                           INT 3 
00003C92 CC                                           INT 3 
00003C93 CC                                           INT 3 
00003C94 CC                                           INT 3 
00003C95 CC                                           INT 3 
00003C96 CC                                           INT 3 
00003C97 CC                                           INT 3 
00003C98 CC                                           INT 3 
00003C99 CC                                           INT 3 
00003C9A CC                                           INT 3 
00003C9B CC                                           INT 3 
00003C9C CC                                           INT 3 
00003C9D CC                                           INT 3 
00003C9E CC                                           INT 3 
00003C9F CC                                           INT 3 
00003CA0 CC                                           INT 3 
00003CA1 CC                                           INT 3 
00003CA2 CC                                           INT 3 
00003CA3 CC                                           INT 3 
00003CA4 CC                                           INT 3 
00003CA5 CC                                           INT 3 
00003CA6 CC                                           INT 3 
00003CA7 CC                                           INT 3 
00003CA8 CC                                           INT 3 
00003CA9 CC                                           INT 3 
00003CAA CC                                           INT 3 
00003CAB CC                                           INT 3 
00003CAC CC                                           INT 3 
00003CAD CC                                           INT 3 
00003CAE CC                                           INT 3 
00003CAF CC                                           INT 3 
00003CB0 CC                                           INT 3 
00003CB1 CC                                           INT 3 
00003CB2 CC                                           INT 3 
00003CB3 CC                                           INT 3 
00003CB4 CC                                           INT 3 
00003CB5 CC                                           INT 3 
00003CB6 CC                                           INT 3 
00003CB7 CC                                           INT 3 
00003CB8 CC                                           INT 3 
00003CB9 CC                                           INT 3 
00003CBA CC                                           INT 3 
00003CBB CC                                           INT 3 
00003CBC CC                                           INT 3 
00003CBD CC                                           INT 3 
00003CBE CC                                           INT 3 
00003CBF CC                                           INT 3 
00003CC0 CC                                           INT 3 
00003CC1 CC                                           INT 3 
00003CC2 CC                                           INT 3 
00003CC3 CC                                           INT 3 
00003CC4 CC                                           INT 3 
00003CC5 CC                                           INT 3 
00003CC6 CC                                           INT 3 
00003CC7 CC                                           INT 3 
00003CC8 CC                                           INT 3 
00003CC9 CC                                           INT 3 
00003CCA CC                                           INT 3 
00003CCB CC                                           INT 3 
00003CCC CC                                           INT 3 
00003CCD CC                                           INT 3 
00003CCE CC                                           INT 3 
00003CCF CC                                           INT 3 
00003CD0 CC                                           INT 3 
00003CD1 CC                                           INT 3 
00003CD2 CC                                           INT 3 
00003CD3 CC                                           INT 3 
00003CD4 CC                                           INT 3 
00003CD5 CC                                           INT 3 
00003CD6 CC                                           INT 3 
00003CD7 CC                                           INT 3 
00003CD8 CC                                           INT 3 
00003CD9 CC                                           INT 3 
00003CDA CC                                           INT 3 
00003CDB CC                                           INT 3 
00003CDC CC                                           INT 3 
00003CDD CC                                           INT 3 
00003CDE CC                                           INT 3 
00003CDF CC                                           INT 3 
00003CE0 CC                                           INT 3 
00003CE1 CC                                           INT 3 
00003CE2 CC                                           INT 3 
00003CE3 CC                                           INT 3 
00003CE4 CC                                           INT 3 
00003CE5 CC                                           INT 3 
00003CE6 CC                                           INT 3 
00003CE7 CC                                           INT 3 
00003CE8 CC                                           INT 3 
00003CE9 CC                                           INT 3 
00003CEA CC                                           INT 3 
00003CEB CC                                           INT 3 
00003CEC CC                                           INT 3 
00003CED CC                                           INT 3 
00003CEE CC                                           INT 3 
00003CEF CC                                           INT 3 
00003CF0 CC                                           INT 3 
00003CF1 CC                                           INT 3 
00003CF2 CC                                           INT 3 
00003CF3 CC                                           INT 3 
00003CF4 CC                                           INT 3 
00003CF5 CC                                           INT 3 
00003CF6 CC                                           INT 3 
00003CF7 CC                                           INT 3 
00003CF8 CC                                           INT 3 
00003CF9 CC                                           INT 3 
00003CFA CC                                           INT 3 
00003CFB CC                                           INT 3 
00003CFC CC                                           INT 3 
00003CFD CC                                           INT 3 
00003CFE CC                                           INT 3 
00003CFF CC                                           INT 3 
00003D00 CC                                           INT 3 
00003D01 CC                                           INT 3 
00003D02 CC                                           INT 3 
00003D03 CC                                           INT 3 
00003D04 CC                                           INT 3 
00003D05 CC                                           INT 3 
00003D06 CC                                           INT 3 
00003D07 CC                                           INT 3 
00003D08 CC                                           INT 3 
00003D09 CC                                           INT 3 
00003D0A CC                                           INT 3 
00003D0B CC                                           INT 3 
00003D0C CC                                           INT 3 
00003D0D CC                                           INT 3 
00003D0E CC                                           INT 3 
00003D0F CC                                           INT 3 
00003D10 CC                                           INT 3 
00003D11 CC                                           INT 3 
00003D12 CC                                           INT 3 
00003D13 CC                                           INT 3 
00003D14 CC                                           INT 3 
00003D15 CC                                           INT 3 
00003D16 CC                                           INT 3 
00003D17 CC                                           INT 3 
00003D18 CC                                           INT 3 
00003D19 CC                                           INT 3 
00003D1A CC                                           INT 3 
00003D1B CC                                           INT 3 
00003D1C CC                                           INT 3 
00003D1D CC                                           INT 3 
00003D1E CC                                           INT 3 
00003D1F CC                                           INT 3 
00003D20 CC                                           INT 3 
00003D21 CC                                           INT 3 
00003D22 CC                                           INT 3 
00003D23 CC                                           INT 3 
00003D24 CC                                           INT 3 
00003D25 CC                                           INT 3 
00003D26 CC                                           INT 3 
00003D27 CC                                           INT 3 
00003D28 CC                                           INT 3 
00003D29 CC                                           INT 3 
00003D2A CC                                           INT 3 
00003D2B CC                                           INT 3 
00003D2C CC                                           INT 3 
00003D2D CC                                           INT 3 
00003D2E CC                                           INT 3 
00003D2F CC                                           INT 3 
00003D30 CC                                           INT 3 
00003D31 CC                                           INT 3 
00003D32 CC                                           INT 3 
00003D33 CC                                           INT 3 
00003D34 CC                                           INT 3 
00003D35 CC                                           INT 3 
00003D36 CC                                           INT 3 
00003D37 CC                                           INT 3 
00003D38 CC                                           INT 3 
00003D39 CC                                           INT 3 
00003D3A CC                                           INT 3 
00003D3B CC                                           INT 3 
00003D3C CC                                           INT 3 
00003D3D CC                                           INT 3 
00003D3E CC                                           INT 3 
00003D3F CC                                           INT 3 
00003D40 CC                                           INT 3 
00003D41 CC                                           INT 3 
00003D42 CC                                           INT 3 
00003D43 CC                                           INT 3 
00003D44 CC                                           INT 3 
00003D45 CC                                           INT 3 
00003D46 CC                                           INT 3 
00003D47 CC                                           INT 3 
00003D48 CC                                           INT 3 
00003D49 CC                                           INT 3 
00003D4A CC                                           INT 3 
00003D4B CC                                           INT 3 
00003D4C CC                                           INT 3 
00003D4D CC                                           INT 3 
00003D4E CC                                           INT 3 
00003D4F CC                                           INT 3 
00003D50 CC                                           INT 3 
00003D51 CC                                           INT 3 
00003D52 CC                                           INT 3 
00003D53 CC                                           INT 3 
00003D54 CC                                           INT 3 
00003D55 CC                                           INT 3 
00003D56 CC                                           INT 3 
00003D57 CC                                           INT 3 
00003D58 CC                                           INT 3 
00003D59 CC                                           INT 3 
00003D5A CC                                           INT 3 
00003D5B CC                                           INT 3 
00003D5C CC                                           INT 3 
00003D5D CC                                           INT 3 
00003D5E CC                                           INT 3 
00003D5F CC                                           INT 3 
00003D60 CC                                           INT 3 
00003D61 CC                                           INT 3 
00003D62 CC                                           INT 3 
00003D63 CC                                           INT 3 
00003D64 CC                                           INT 3 
00003D65 CC                                           INT 3 
00003D66 CC                                           INT 3 
00003D67 CC                                           INT 3 
00003D68 CC                                           INT 3 
00003D69 CC                                           INT 3 
00003D6A CC                                           INT 3 
00003D6B CC                                           INT 3 
00003D6C CC                                           INT 3 
00003D6D CC                                           INT 3 
00003D6E CC                                           INT 3 
00003D6F CC                                           INT 3 
00003D70 CC                                           INT 3 
00003D71 CC                                           INT 3 
00003D72 CC                                           INT 3 
00003D73 CC                                           INT 3 
00003D74 CC                                           INT 3 
00003D75 CC                                           INT 3 
00003D76 CC                                           INT 3 
00003D77 CC                                           INT 3 
00003D78 CC                                           INT 3 
00003D79 CC                                           INT 3 
00003D7A CC                                           INT 3 
00003D7B CC                                           INT 3 
00003D7C CC                                           INT 3 
00003D7D CC                                           INT 3 
00003D7E CC                                           INT 3 
00003D7F CC                                           INT 3 
00003D80 CC                                           INT 3 
00003D81 CC                                           INT 3 
00003D82 CC                                           INT 3 
00003D83 CC                                           INT 3 
00003D84 CC                                           INT 3 
00003D85 CC                                           INT 3 
00003D86 CC                                           INT 3 
00003D87 CC                                           INT 3 
00003D88 CC                                           INT 3 
00003D89 CC                                           INT 3 
00003D8A CC                                           INT 3 
00003D8B CC                                           INT 3 
00003D8C CC                                           INT 3 
00003D8D CC                                           INT 3 
00003D8E CC                                           INT 3 
00003D8F CC                                           INT 3 
00003D90 CC                                           INT 3 
00003D91 CC                                           INT 3 
00003D92 CC                                           INT 3 
00003D93 CC                                           INT 3 
00003D94 CC                                           INT 3 
00003D95 CC                                           INT 3 
00003D96 CC                                           INT 3 
00003D97 CC                                           INT 3 
00003D98 CC                                           INT 3 
00003D99 CC                                           INT 3 
00003D9A CC                                           INT 3 
00003D9B CC                                           INT 3 
00003D9C CC                                           INT 3 
00003D9D CC                                           INT 3 
00003D9E CC                                           INT 3 
00003D9F CC                                           INT 3 
00003DA0 CC                                           INT 3 
00003DA1 CC                                           INT 3 
00003DA2 CC                                           INT 3 
00003DA3 CC                                           INT 3 
00003DA4 CC                                           INT 3 
00003DA5 CC                                           INT 3 
00003DA6 CC                                           INT 3 
00003DA7 CC                                           INT 3 
00003DA8 CC                                           INT 3 
00003DA9 CC                                           INT 3 
00003DAA CC                                           INT 3 
00003DAB CC                                           INT 3 
00003DAC CC                                           INT 3 
00003DAD CC                                           INT 3 
00003DAE CC                                           INT 3 
00003DAF CC                                           INT 3 
00003DB0 CC                                           INT 3 
00003DB1 CC                                           INT 3 
00003DB2 CC                                           INT 3 
00003DB3 CC                                           INT 3 
00003DB4 CC                                           INT 3 
00003DB5 CC                                           INT 3 
00003DB6 CC                                           INT 3 
00003DB7 CC                                           INT 3 
00003DB8 CC                                           INT 3 
00003DB9 CC                                           INT 3 
00003DBA CC                                           INT 3 
00003DBB CC                                           INT 3 
00003DBC CC                                           INT 3 
00003DBD CC                                           INT 3 
00003DBE CC                                           INT 3 
00003DBF CC                                           INT 3 
00003DC0 CC                                           INT 3 
00003DC1 CC                                           INT 3 
00003DC2 CC                                           INT 3 
00003DC3 CC                                           INT 3 
00003DC4 CC                                           INT 3 
00003DC5 CC                                           INT 3 
00003DC6 CC                                           INT 3 
00003DC7 CC                                           INT 3 
00003DC8 CC                                           INT 3 
00003DC9 CC                                           INT 3 
00003DCA CC                                           INT 3 
00003DCB CC                                           INT 3 
00003DCC CC                                           INT 3 
00003DCD CC                                           INT 3 
00003DCE CC                                           INT 3 
00003DCF CC                                           INT 3 
00003DD0 CC                                           INT 3 
00003DD1 CC                                           INT 3 
00003DD2 CC                                           INT 3 
00003DD3 CC                                           INT 3 
00003DD4 CC                                           INT 3 
00003DD5 CC                                           INT 3 
00003DD6 CC                                           INT 3 
00003DD7 CC                                           INT 3 
00003DD8 CC                                           INT 3 
00003DD9 CC                                           INT 3 
00003DDA CC                                           INT 3 
00003DDB CC                                           INT 3 
00003DDC CC                                           INT 3 
00003DDD CC                                           INT 3 
00003DDE CC                                           INT 3 
00003DDF CC                                           INT 3 
00003DE0 CC                                           INT 3 
00003DE1 CC                                           INT 3 
00003DE2 CC                                           INT 3 
00003DE3 CC                                           INT 3 
00003DE4 CC                                           INT 3 
00003DE5 CC                                           INT 3 
00003DE6 CC                                           INT 3 
00003DE7 CC                                           INT 3 
00003DE8 CC                                           INT 3 
00003DE9 CC                                           INT 3 
00003DEA CC                                           INT 3 
00003DEB CC                                           INT 3 
00003DEC CC                                           INT 3 
00003DED CC                                           INT 3 
00003DEE CC                                           INT 3 
00003DEF CC                                           INT 3 
00003DF0 CC                                           INT 3 
00003DF1 CC                                           INT 3 
00003DF2 CC                                           INT 3 
00003DF3 CC                                           INT 3 
00003DF4 CC                                           INT 3 
00003DF5 CC                                           INT 3 
00003DF6 CC                                           INT 3 
00003DF7 CC                                           INT 3 
00003DF8 CC                                           INT 3 
00003DF9 CC                                           INT 3 
00003DFA CC                                           INT 3 
00003DFB CC                                           INT 3 
00003DFC CC                                           INT 3 
00003DFD CC                                           INT 3 
00003DFE CC                                           INT 3 
00003DFF CC                                           INT 3 
00003E00 CC                                           INT 3 
00003E01 CC                                           INT 3 
00003E02 CC                                           INT 3 
00003E03 CC                                           INT 3 
00003E04 CC                                           INT 3 
00003E05 CC                                           INT 3 
00003E06 CC                                           INT 3 
00003E07 CC                                           INT 3 
00003E08 CC                                           INT 3 
00003E09 CC                                           INT 3 
00003E0A CC                                           INT 3 
00003E0B CC                                           INT 3 
00003E0C CC                                           INT 3 
00003E0D CC                                           INT 3 
00003E0E CC                                           INT 3 
00003E0F CC                                           INT 3 
00003E10 CC                                           INT 3 
00003E11 CC                                           INT 3 
00003E12 CC                                           INT 3 
00003E13 CC                                           INT 3 
00003E14 CC                                           INT 3 
00003E15 CC                                           INT 3 
00003E16 CC                                           INT 3 
00003E17 CC                                           INT 3 
00003E18 CC                                           INT 3 
00003E19 CC                                           INT 3 
00003E1A CC                                           INT 3 
00003E1B CC                                           INT 3 
00003E1C CC                                           INT 3 
00003E1D CC                                           INT 3 
00003E1E CC                                           INT 3 
00003E1F CC                                           INT 3 
00003E20 CC                                           INT 3 
00003E21 CC                                           INT 3 
00003E22 CC                                           INT 3 
00003E23 CC                                           INT 3 
00003E24 CC                                           INT 3 
00003E25 CC                                           INT 3 
00003E26 CC                                           INT 3 
00003E27 CC                                           INT 3 
00003E28 CC                                           INT 3 
00003E29 CC                                           INT 3 
00003E2A CC                                           INT 3 
00003E2B CC                                           INT 3 
00003E2C CC                                           INT 3 
00003E2D CC                                           INT 3 
00003E2E CC                                           INT 3 
00003E2F CC                                           INT 3 
00003E30 CC                                           INT 3 
00003E31 CC                                           INT 3 
00003E32 CC                                           INT 3 
00003E33 CC                                           INT 3 
00003E34 CC                                           INT 3 
00003E35 CC                                           INT 3 
00003E36 CC                                           INT 3 
00003E37 CC                                           INT 3 
00003E38 CC                                           INT 3 
00003E39 CC                                           INT 3 
00003E3A CC                                           INT 3 
00003E3B CC                                           INT 3 
00003E3C CC                                           INT 3 
00003E3D CC                                           INT 3 
00003E3E CC                                           INT 3 
00003E3F CC                                           INT 3 
00003E40 CC                                           INT 3 
00003E41 CC                                           INT 3 
00003E42 CC                                           INT 3 
00003E43 CC                                           INT 3 
00003E44 CC                                           INT 3 
00003E45 CC                                           INT 3 
00003E46 CC                                           INT 3 
00003E47 CC                                           INT 3 
00003E48 CC                                           INT 3 
00003E49 CC                                           INT 3 
00003E4A CC                                           INT 3 
00003E4B CC                                           INT 3 
00003E4C CC                                           INT 3 
00003E4D CC                                           INT 3 
00003E4E CC                                           INT 3 
00003E4F CC                                           INT 3 
00003E50 CC                                           INT 3 
00003E51 CC                                           INT 3 
00003E52 CC                                           INT 3 
00003E53 CC                                           INT 3 
00003E54 CC                                           INT 3 
00003E55 CC                                           INT 3 
00003E56 CC                                           INT 3 
00003E57 CC                                           INT 3 
00003E58 CC                                           INT 3 
00003E59 CC                                           INT 3 
00003E5A CC                                           INT 3 
00003E5B CC                                           INT 3 
00003E5C CC                                           INT 3 
00003E5D CC                                           INT 3 
00003E5E CC                                           INT 3 
00003E5F CC                                           INT 3 
00003E60 CC                                           INT 3 
00003E61 CC                                           INT 3 
00003E62 CC                                           INT 3 
00003E63 CC                                           INT 3 
00003E64 CC                                           INT 3 
00003E65 CC                                           INT 3 
00003E66 CC                                           INT 3 
00003E67 CC                                           INT 3 
00003E68 CC                                           INT 3 
00003E69 CC                                           INT 3 
00003E6A CC                                           INT 3 
00003E6B CC                                           INT 3 
00003E6C CC                                           INT 3 
00003E6D CC                                           INT 3 
00003E6E CC                                           INT 3 
00003E6F CC                                           INT 3 
00003E70 CC                                           INT 3 
00003E71 CC                                           INT 3 
00003E72 CC                                           INT 3 
00003E73 CC                                           INT 3 
00003E74 CC                                           INT 3 
00003E75 CC                                           INT 3 
00003E76 CC                                           INT 3 
00003E77 CC                                           INT 3 
00003E78 CC                                           INT 3 
00003E79 CC                                           INT 3 
00003E7A CC                                           INT 3 
00003E7B CC                                           INT 3 
00003E7C CC                                           INT 3 
00003E7D CC                                           INT 3 
00003E7E CC                                           INT 3 
00003E7F CC                                           INT 3 
00003E80 CC                                           INT 3 
00003E81 CC                                           INT 3 
00003E82 CC                                           INT 3 
00003E83 CC                                           INT 3 
00003E84 CC                                           INT 3 
00003E85 CC                                           INT 3 
00003E86 CC                                           INT 3 
00003E87 CC                                           INT 3 
00003E88 CC                                           INT 3 
00003E89 CC                                           INT 3 
00003E8A CC                                           INT 3 
00003E8B CC                                           INT 3 
00003E8C CC                                           INT 3 
00003E8D CC                                           INT 3 
00003E8E CC                                           INT 3 
00003E8F CC                                           INT 3 
00003E90 CC                                           INT 3 
00003E91 CC                                           INT 3 
00003E92 CC                                           INT 3 
00003E93 CC                                           INT 3 
00003E94 CC                                           INT 3 
00003E95 CC                                           INT 3 
00003E96 CC                                           INT 3 
00003E97 CC                                           INT 3 
00003E98 CC                                           INT 3 
00003E99 CC                                           INT 3 
00003E9A CC                                           INT 3 
00003E9B CC                                           INT 3 
00003E9C CC                                           INT 3 
00003E9D CC                                           INT 3 
00003E9E CC                                           INT 3 
00003E9F CC                                           INT 3 
00003EA0 CC                                           INT 3 
00003EA1 CC                                           INT 3 
00003EA2 CC                                           INT 3 
00003EA3 CC                                           INT 3 
00003EA4 CC                                           INT 3 
00003EA5 CC                                           INT 3 
00003EA6 CC                                           INT 3 
00003EA7 CC                                           INT 3 
00003EA8 CC                                           INT 3 
00003EA9 CC                                           INT 3 
00003EAA CC                                           INT 3 
00003EAB CC                                           INT 3 
00003EAC CC                                           INT 3 
00003EAD CC                                           INT 3 
00003EAE CC                                           INT 3 
00003EAF CC                                           INT 3 
00003EB0 CC                                           INT 3 
00003EB1 CC                                           INT 3 
00003EB2 CC                                           INT 3 
00003EB3 CC                                           INT 3 
00003EB4 CC                                           INT 3 
00003EB5 CC                                           INT 3 
00003EB6 CC                                           INT 3 
00003EB7 CC                                           INT 3 
00003EB8 CC                                           INT 3 
00003EB9 CC                                           INT 3 
00003EBA CC                                           INT 3 
00003EBB CC                                           INT 3 
00003EBC CC                                           INT 3 
00003EBD CC                                           INT 3 
00003EBE CC                                           INT 3 
00003EBF CC                                           INT 3 
00003EC0 CC                                           INT 3 
00003EC1 CC                                           INT 3 
00003EC2 CC                                           INT 3 
00003EC3 CC                                           INT 3 
00003EC4 CC                                           INT 3 
00003EC5 CC                                           INT 3 
00003EC6 CC                                           INT 3 
00003EC7 CC                                           INT 3 
00003EC8 CC                                           INT 3 
00003EC9 CC                                           INT 3 
00003ECA CC                                           INT 3 
00003ECB CC                                           INT 3 
00003ECC CC                                           INT 3 
00003ECD CC                                           INT 3 
00003ECE CC                                           INT 3 
00003ECF CC                                           INT 3 
00003ED0 CC                                           INT 3 
00003ED1 CC                                           INT 3 
00003ED2 CC                                           INT 3 
00003ED3 CC                                           INT 3 
00003ED4 CC                                           INT 3 
00003ED5 CC                                           INT 3 
00003ED6 CC                                           INT 3 
00003ED7 CC                                           INT 3 
00003ED8 CC                                           INT 3 
00003ED9 CC                                           INT 3 
00003EDA CC                                           INT 3 
00003EDB CC                                           INT 3 
00003EDC CC                                           INT 3 
00003EDD CC                                           INT 3 
00003EDE CC                                           INT 3 
00003EDF CC                                           INT 3 
00003EE0 CC                                           INT 3 
00003EE1 CC                                           INT 3 
00003EE2 CC                                           INT 3 
00003EE3 CC                                           INT 3 
00003EE4 CC                                           INT 3 
00003EE5 CC                                           INT 3 
00003EE6 CC                                           INT 3 
00003EE7 CC                                           INT 3 
00003EE8 CC                                           INT 3 
00003EE9 CC                                           INT 3 
00003EEA CC                                           INT 3 
00003EEB CC                                           INT 3 
00003EEC CC                                           INT 3 
00003EED CC                                           INT 3 
00003EEE CC                                           INT 3 
00003EEF CC                                           INT 3 
00003EF0 CC                                           INT 3 
00003EF1 CC                                           INT 3 
00003EF2 CC                                           INT 3 
00003EF3 CC                                           INT 3 
00003EF4 CC                                           INT 3 
00003EF5 CC                                           INT 3 
00003EF6 CC                                           INT 3 
00003EF7 CC                                           INT 3 
00003EF8 CC                                           INT 3 
00003EF9 CC                                           INT 3 
00003EFA CC                                           INT 3 
00003EFB CC                                           INT 3 
00003EFC CC                                           INT 3 
00003EFD CC                                           INT 3 
00003EFE CC                                           INT 3 
00003EFF CC                                           INT 3 
00003F00 CC                                           INT 3 
00003F01 CC                                           INT 3 
00003F02 CC                                           INT 3 
00003F03 CC                                           INT 3 
00003F04 CC                                           INT 3 
00003F05 CC                                           INT 3 
00003F06 CC                                           INT 3 
00003F07 CC                                           INT 3 
00003F08 CC                                           INT 3 
00003F09 CC                                           INT 3 
00003F0A CC                                           INT 3 
00003F0B CC                                           INT 3 
00003F0C CC                                           INT 3 
00003F0D CC                                           INT 3 
00003F0E CC                                           INT 3 
00003F0F CC                                           INT 3 
00003F10 CC                                           INT 3 
00003F11 CC                                           INT 3 
00003F12 CC                                           INT 3 
00003F13 CC                                           INT 3 
00003F14 CC                                           INT 3 
00003F15 CC                                           INT 3 
00003F16 CC                                           INT 3 
00003F17 CC                                           INT 3 
00003F18 CC                                           INT 3 
00003F19 CC                                           INT 3 
00003F1A CC                                           INT 3 
00003F1B CC                                           INT 3 
00003F1C CC                                           INT 3 
00003F1D CC                                           INT 3 
00003F1E CC                                           INT 3 
00003F1F CC                                           INT 3 
00003F20 CC                                           INT 3 
00003F21 CC                                           INT 3 
00003F22 CC                                           INT 3 
00003F23 CC                                           INT 3 
00003F24 CC                                           INT 3 
00003F25 CC                                           INT 3 
00003F26 CC                                           INT 3 
00003F27 CC                                           INT 3 
00003F28 CC                                           INT 3 
00003F29 CC                                           INT 3 
00003F2A CC                                           INT 3 
00003F2B CC                                           INT 3 
00003F2C CC                                           INT 3 
00003F2D CC                                           INT 3 
00003F2E CC                                           INT 3 
00003F2F CC                                           INT 3 
00003F30 CC                                           INT 3 
00003F31 CC                                           INT 3 
00003F32 CC                                           INT 3 
00003F33 CC                                           INT 3 
00003F34 CC                                           INT 3 
00003F35 CC                                           INT 3 
00003F36 CC                                           INT 3 
00003F37 CC                                           INT 3 
00003F38 CC                                           INT 3 
00003F39 CC                                           INT 3 
00003F3A CC                                           INT 3 
00003F3B CC                                           INT 3 
00003F3C CC                                           INT 3 
00003F3D CC                                           INT 3 
00003F3E CC                                           INT 3 
00003F3F CC                                           INT 3 
00003F40 CC                                           INT 3 
00003F41 CC                                           INT 3 
00003F42 CC                                           INT 3 
00003F43 CC                                           INT 3 
00003F44 CC                                           INT 3 
00003F45 CC                                           INT 3 
00003F46 CC                                           INT 3 
00003F47 CC                                           INT 3 
00003F48 CC                                           INT 3 
00003F49 CC                                           INT 3 
00003F4A CC                                           INT 3 
00003F4B CC                                           INT 3 
00003F4C CC                                           INT 3 
00003F4D CC                                           INT 3 
00003F4E CC                                           INT 3 
00003F4F CC                                           INT 3 
00003F50 CC                                           INT 3 
00003F51 CC                                           INT 3 
00003F52 CC                                           INT 3 
00003F53 CC                                           INT 3 
00003F54 CC                                           INT 3 
00003F55 CC                                           INT 3 
00003F56 CC                                           INT 3 
00003F57 CC                                           INT 3 
00003F58 CC                                           INT 3 
00003F59 CC                                           INT 3 
00003F5A CC                                           INT 3 
00003F5B CC                                           INT 3 
00003F5C CC                                           INT 3 
00003F5D CC                                           INT 3 
00003F5E CC                                           INT 3 
00003F5F CC                                           INT 3 
00003F60 CC                                           INT 3 
00003F61 CC                                           INT 3 
00003F62 CC                                           INT 3 
00003F63 CC                                           INT 3 
00003F64 CC                                           INT 3 
00003F65 CC                                           INT 3 
00003F66 CC                                           INT 3 
00003F67 CC                                           INT 3 
00003F68 CC                                           INT 3 
00003F69 CC                                           INT 3 
00003F6A CC                                           INT 3 
00003F6B CC                                           INT 3 
00003F6C CC                                           INT 3 
00003F6D CC                                           INT 3 
00003F6E CC                                           INT 3 
00003F6F CC                                           INT 3 
00003F70 CC                                           INT 3 
00003F71 CC                                           INT 3 
00003F72 CC                                           INT 3 
00003F73 CC                                           INT 3 
00003F74 CC                                           INT 3 
00003F75 CC                                           INT 3 
00003F76 CC                                           INT 3 
00003F77 CC                                           INT 3 
00003F78 CC                                           INT 3 
00003F79 CC                                           INT 3 
00003F7A CC                                           INT 3 
00003F7B CC                                           INT 3 
00003F7C CC                                           INT 3 
00003F7D CC                                           INT 3 
00003F7E CC                                           INT 3 
00003F7F CC                                           INT 3 
00003F80 CC                                           INT 3 
00003F81 CC                                           INT 3 
00003F82 CC                                           INT 3 
00003F83 CC                                           INT 3 
00003F84 CC                                           INT 3 
00003F85 CC                                           INT 3 
00003F86 CC                                           INT 3 
00003F87 CC                                           INT 3 
00003F88 CC                                           INT 3 
00003F89 CC                                           INT 3 
00003F8A CC                                           INT 3 
00003F8B CC                                           INT 3 
00003F8C CC                                           INT 3 
00003F8D CC                                           INT 3 
00003F8E CC                                           INT 3 
00003F8F CC                                           INT 3 
00003F90 CC                                           INT 3 
00003F91 CC                                           INT 3 
00003F92 CC                                           INT 3 
00003F93 CC                                           INT 3 
00003F94 CC                                           INT 3 
00003F95 CC                                           INT 3 
00003F96 CC                                           INT 3 
00003F97 CC                                           INT 3 
00003F98 CC                                           INT 3 
00003F99 CC                                           INT 3 
00003F9A CC                                           INT 3 
00003F9B CC                                           INT 3 
00003F9C CC                                           INT 3 
00003F9D CC                                           INT 3 
00003F9E CC                                           INT 3 
00003F9F CC                                           INT 3 
00003FA0 CC                                           INT 3 
00003FA1 CC                                           INT 3 
00003FA2 CC                                           INT 3 
00003FA3 CC                                           INT 3 
00003FA4 CC                                           INT 3 
00003FA5 CC                                           INT 3 
00003FA6 CC                                           INT 3 
00003FA7 CC                                           INT 3 
00003FA8 CC                                           INT 3 
00003FA9 CC                                           INT 3 
00003FAA CC                                           INT 3 
00003FAB CC                                           INT 3 
00003FAC CC                                           INT 3 
00003FAD CC                                           INT 3 
00003FAE CC                                           INT 3 
00003FAF CC                                           INT 3 
00003FB0 CC                                           INT 3 
00003FB1 CC                                           INT 3 
00003FB2 CC                                           INT 3 
00003FB3 CC                                           INT 3 
00003FB4 CC                                           INT 3 
00003FB5 CC                                           INT 3 
00003FB6 CC                                           INT 3 
00003FB7 CC                                           INT 3 
00003FB8 CC                                           INT 3 
00003FB9 CC                                           INT 3 
00003FBA CC                                           INT 3 
00003FBB CC                                           INT 3 
00003FBC CC                                           INT 3 
00003FBD CC                                           INT 3 
00003FBE CC                                           INT 3 
00003FBF CC                                           INT 3 
00003FC0 CC                                           INT 3 
00003FC1 CC                                           INT 3 
00003FC2 CC                                           INT 3 
00003FC3 CC                                           INT 3 
00003FC4 CC                                           INT 3 
00003FC5 CC                                           INT 3 
00003FC6 CC                                           INT 3 
00003FC7 CC                                           INT 3 
00003FC8 CC                                           INT 3 
00003FC9 CC                                           INT 3 
00003FCA CC                                           INT 3 
00003FCB CC                                           INT 3 
00003FCC CC                                           INT 3 
00003FCD CC                                           INT 3 
00003FCE CC                                           INT 3 
00003FCF CC                                           INT 3 
00003FD0 CC                                           INT 3 
00003FD1 CC                                           INT 3 
00003FD2 CC                                           INT 3 
00003FD3 CC                                           INT 3 
00003FD4 CC                                           INT 3 
00003FD5 CC                                           INT 3 
00003FD6 CC                                           INT 3 
00003FD7 CC                                           INT 3 
00003FD8 CC                                           INT 3 
00003FD9 CC                                           INT 3 
00003FDA CC                                           INT 3 
00003FDB CC                                           INT 3 
00003FDC CC                                           INT 3 
00003FDD CC                                           INT 3 
00003FDE CC                                           INT 3 
00003FDF CC                                           INT 3 
00003FE0 CC                                           INT 3 
00003FE1 CC                                           INT 3 
00003FE2 CC                                           INT 3 
00003FE3 CC                                           INT 3 
00003FE4 CC                                           INT 3 
00003FE5 CC                                           INT 3 
00003FE6 CC                                           INT 3 
00003FE7 CC                                           INT 3 
00003FE8 CC                                           INT 3 
00003FE9 CC                                           INT 3 
00003FEA CC                                           INT 3 
00003FEB CC                                           INT 3 
00003FEC CC                                           INT 3 
00003FED CC                                           INT 3 
00003FEE CC                                           INT 3 
00003FEF CC                                           INT 3 
00003FF0 CC                                           INT 3 
00003FF1 CC                                           INT 3 
00003FF2 CC                                           INT 3 
00003FF3 CC                                           INT 3 
00003FF4 CC                                           INT 3 
00003FF5 CC                                           INT 3 
00003FF6 CC                                           INT 3 
00003FF7 CC                                           INT 3 
00003FF8 CC                                           INT 3 
00003FF9 CC                                           INT 3 
00003FFA CC                                           INT 3 
00003FFB CC                                           INT 3 
00003FFC CC                                           INT 3 
00003FFD CC                                           INT 3 
00003FFE CC                                           INT 3 
00003FFF CC                                           INT 3 
00004000 CC                                           INT 3 
00004001 CC                                           INT 3 
00004002 CC                                           INT 3 
00004003 CC                                           INT 3 
00004004 CC                                           INT 3 
00004005 CC                                           INT 3 
00004006 CC                                           INT 3 
00004007 CC                                           INT 3 
00004008 CC                                           INT 3 
00004009 CC                                           INT 3 
0000400A CC                                           INT 3 
0000400B CC                                           INT 3 
0000400C CC                                           INT 3 
0000400D CC                                           INT 3 
0000400E CC                                           INT 3 
0000400F CC                                           INT 3 
00004010 CC                                           INT 3 
00004011 CC                                           INT 3 
00004012 CC                                           INT 3 
00004013 CC                                           INT 3 
00004014 CC                                           INT 3 
00004015 CC                                           INT 3 
00004016 CC                                           INT 3 
00004017 CC                                           INT 3 
00004018 CC                                           INT 3 
00004019 CC                                           INT 3 
0000401A CC                                           INT 3 
0000401B CC                                           INT 3 
0000401C CC                                           INT 3 
0000401D CC                                           INT 3 
0000401E CC                                           INT 3 
0000401F CC                                           INT 3 
00004020 CC                                           INT 3 
00004021 CC                                           INT 3 
00004022 CC                                           INT 3 
00004023 CC                                           INT 3 
00004024 CC                                           INT 3 
00004025 CC                                           INT 3 
00004026 CC                                           INT 3 
00004027 CC                                           INT 3 
00004028 CC                                           INT 3 
00004029 CC                                           INT 3 
0000402A CC                                           INT 3 
0000402B CC                                           INT 3 
0000402C CC                                           INT 3 
0000402D CC                                           INT 3 
0000402E CC                                           INT 3 
0000402F CC                                           INT 3 
00004030 CC                                           INT 3 
00004031 CC                                           INT 3 
00004032 CC                                           INT 3 
00004033 CC                                           INT 3 
00004034 CC                                           INT 3 
00004035 CC                                           INT 3 
00004036 CC                                           INT 3 
00004037 CC                                           INT 3 
00004038 CC                                           INT 3 
00004039 CC                                           INT 3 
0000403A CC                                           INT 3 
0000403B CC                                           INT 3 
0000403C CC                                           INT 3 
0000403D CC                                           INT 3 
0000403E CC                                           INT 3 
0000403F CC                                           INT 3 
00004040 CC                                           INT 3 
00004041 CC                                           INT 3 
00004042 CC                                           INT 3 
00004043 CC                                           INT 3 
00004044 CC                                           INT 3 
00004045 CC                                           INT 3 
00004046 CC                                           INT 3 
00004047 CC                                           INT 3 
00004048 CC                                           INT 3 
00004049 CC                                           INT 3 
0000404A CC                                           INT 3 
0000404B CC                                           INT 3 
0000404C CC                                           INT 3 
0000404D CC                                           INT 3 
0000404E CC                                           INT 3 
0000404F CC                                           INT 3 
00004050 CC                                           INT 3 
00004051 CC                                           INT 3 
00004052 CC                                           INT 3 
00004053 CC                                           INT 3 
00004054 CC                                           INT 3 
00004055 CC                                           INT 3 
00004056 CC                                           INT 3 
00004057 CC                                           INT 3 
00004058 CC                                           INT 3 
00004059 CC                                           INT 3 
0000405A CC                                           INT 3 
0000405B CC                                           INT 3 
0000405C CC                                           INT 3 
0000405D CC                                           INT 3 
0000405E CC                                           INT 3 
0000405F CC                                           INT 3 
00004060 CC                                           INT 3 
00004061 CC                                           INT 3 
00004062 CC                                           INT 3 
00004063 CC                                           INT 3 
00004064 CC                                           INT 3 
00004065 CC                                           INT 3 
00004066 CC                                           INT 3 
00004067 CC                                           INT 3 
00004068 CC                                           INT 3 
00004069 CC                                           INT 3 
0000406A CC                                           INT 3 
0000406B CC                                           INT 3 
0000406C CC                                           INT 3 
0000406D CC                                           INT 3 
0000406E CC                                           INT 3 
0000406F CC                                           INT 3 
00004070 CC                                           INT 3 
00004071 CC                                           INT 3 
00004072 CC                                           INT 3 
00004073 CC                                           INT 3 
00004074 CC                                           INT 3 
00004075 CC                                           INT 3 
00004076 CC                                           INT 3 
00004077 CC                                           INT 3 
00004078 CC                                           INT 3 
00004079 CC                                           INT 3 
0000407A CC                                           INT 3 
0000407B CC                                           INT 3 
0000407C CC                                           INT 3 
0000407D CC                                           INT 3 
0000407E CC                                           INT 3 
0000407F CC                                           INT 3 
00004080 CC                                           INT 3 
00004081 CC                                           INT 3 
00004082 CC                                           INT 3 
00004083 CC                                           INT 3 
00004084 CC                                           INT 3 
00004085 CC                                           INT 3 
00004086 CC                                           INT 3 
00004087 CC                                           INT 3 
00004088 CC                                           INT 3 
00004089 CC                                           INT 3 
0000408A CC                                           INT 3 
0000408B CC                                           INT 3 
0000408C CC                                           INT 3 
0000408D CC                                           INT 3 
0000408E CC                                           INT 3 
0000408F CC                                           INT 3 
00004090 CC                                           INT 3 
00004091 CC                                           INT 3 
00004092 CC                                           INT 3 
00004093 CC                                           INT 3 
00004094 CC                                           INT 3 
00004095 CC                                           INT 3 
00004096 CC                                           INT 3 
00004097 CC                                           INT 3 
00004098 CC                                           INT 3 
00004099 CC                                           INT 3 
0000409A CC                                           INT 3 
0000409B CC                                           INT 3 
0000409C CC                                           INT 3 
0000409D CC                                           INT 3 
0000409E CC                                           INT 3 
0000409F CC                                           INT 3 
000040A0 CC                                           INT 3 
000040A1 CC                                           INT 3 
000040A2 CC                                           INT 3 
000040A3 CC                                           INT 3 
000040A4 CC                                           INT 3 
000040A5 CC                                           INT 3 
000040A6 CC                                           INT 3 
000040A7 CC                                           INT 3 
000040A8 CC                                           INT 3 
000040A9 CC                                           INT 3 
000040AA CC                                           INT 3 
000040AB CC                                           INT 3 
000040AC CC                                           INT 3 
000040AD CC                                           INT 3 
000040AE CC                                           INT 3 
000040AF CC                                           INT 3 
000040B0 CC                                           INT 3 
000040B1 CC                                           INT 3 
000040B2 CC                                           INT 3 
000040B3 CC                                           INT 3 
000040B4 CC                                           INT 3 
000040B5 CC                                           INT 3 
000040B6 CC                                           INT 3 
000040B7 CC                                           INT 3 
000040B8 CC                                           INT 3 
000040B9 CC                                           INT 3 
000040BA CC                                           INT 3 
000040BB CC                                           INT 3 
000040BC CC                                           INT 3 
000040BD CC                                           INT 3 
000040BE CC                                           INT 3 
000040BF CC                                           INT 3 
000040C0 CC                                           INT 3 
000040C1 CC                                           INT 3 
000040C2 CC                                           INT 3 
000040C3 CC                                           INT 3 
000040C4 CC                                           INT 3 
000040C5 CC                                           INT 3 
000040C6 CC                                           INT 3 
000040C7 CC                                           INT 3 
000040C8 CC                                           INT 3 
000040C9 CC                                           INT 3 
000040CA CC                                           INT 3 
000040CB CC                                           INT 3 
000040CC CC                                           INT 3 
000040CD CC                                           INT 3 
000040CE CC                                           INT 3 
000040CF CC                                           INT 3 
000040D0 CC                                           INT 3 
000040D1 CC                                           INT 3 
000040D2 CC                                           INT 3 
000040D3 CC                                           INT 3 
000040D4 CC                                           INT 3 
000040D5 CC                                           INT 3 
000040D6 CC                                           INT 3 
000040D7 CC                                           INT 3 
000040D8 CC                                           INT 3 
000040D9 CC                                           INT 3 
000040DA CC                                           INT 3 
000040DB CC                                           INT 3 
000040DC CC                                           INT 3 
000040DD CC                                           INT 3 
000040DE CC                                           INT 3 
000040DF CC                                           INT 3 
000040E0 CC                                           INT 3 
000040E1 CC                                           INT 3 
000040E2 CC                                           INT 3 
000040E3 CC                                           INT 3 
000040E4 CC                                           INT 3 
000040E5 CC                                           INT 3 
000040E6 CC                                           INT 3 
000040E7 CC                                           INT 3 
000040E8 CC                                           INT 3 
000040E9 CC                                           INT 3 
000040EA CC                                           INT 3 
000040EB CC                                           INT 3 
000040EC CC                                           INT 3 
000040ED CC                                           INT 3 
000040EE CC                                           INT 3 
000040EF CC                                           INT 3 
000040F0 CC                                           INT 3 
000040F1 CC                                           INT 3 
000040F2 CC                                           INT 3 
000040F3 CC                                           INT 3 
000040F4 CC                                           INT 3 
000040F5 CC                                           INT 3 
000040F6 CC                                           INT 3 
000040F7 CC                                           INT 3 
000040F8 CC                                           INT 3 
000040F9 CC                                           INT 3 
000040FA CC                                           INT 3 
000040FB CC                                           INT 3 
000040FC CC                                           INT 3 
000040FD CC                                           INT 3 
000040FE CC                                           INT 3 
000040FF CC                                           INT 3 
00004100 CC                                           INT 3 
00004101 CC                                           INT 3 
00004102 CC                                           INT 3 
00004103 CC                                           INT 3 
00004104 CC                                           INT 3 
00004105 CC                                           INT 3 
00004106 CC                                           INT 3 
00004107 CC                                           INT 3 
00004108 CC                                           INT 3 
00004109 CC                                           INT 3 
0000410A CC                                           INT 3 
0000410B CC                                           INT 3 
0000410C CC                                           INT 3 
0000410D CC                                           INT 3 
0000410E CC                                           INT 3 
0000410F CC                                           INT 3 
00004110 CC                                           INT 3 
00004111 CC                                           INT 3 
00004112 CC                                           INT 3 
00004113 CC                                           INT 3 
00004114 CC                                           INT 3 
00004115 CC                                           INT 3 
00004116 CC                                           INT 3 
00004117 CC                                           INT 3 
00004118 CC                                           INT 3 
00004119 CC                                           INT 3 
0000411A CC                                           INT 3 
0000411B CC                                           INT 3 
0000411C CC                                           INT 3 
0000411D CC                                           INT 3 
0000411E CC                                           INT 3 
0000411F CC                                           INT 3 
00004120 CC                                           INT 3 
00004121 CC                                           INT 3 
00004122 CC                                           INT 3 
00004123 CC                                           INT 3 
00004124 CC                                           INT 3 
00004125 CC                                           INT 3 
00004126 CC                                           INT 3 
00004127 CC                                           INT 3 
00004128 CC                                           INT 3 
00004129 CC                                           INT 3 
0000412A CC                                           INT 3 
0000412B CC                                           INT 3 
0000412C CC                                           INT 3 
0000412D CC                                           INT 3 
0000412E CC                                           INT 3 
0000412F CC                                           INT 3 
00004130 CC                                           INT 3 
00004131 CC                                           INT 3 
00004132 CC                                           INT 3 
00004133 CC                                           INT 3 
00004134 CC                                           INT 3 
00004135 CC                                           INT 3 
00004136 CC                                           INT 3 
00004137 CC                                           INT 3 
00004138 CC                                           INT 3 
00004139 CC                                           INT 3 
0000413A CC                                           INT 3 
0000413B CC                                           INT 3 
0000413C CC                                           INT 3 
0000413D CC                                           INT 3 
0000413E CC                                           INT 3 
0000413F CC                                           INT 3 
00004140 CC                                           INT 3 
00004141 CC                                           INT 3 
00004142 CC                                           INT 3 
00004143 CC                                           INT 3 
00004144 CC                                           INT 3 
00004145 CC                                           INT 3 
00004146 CC                                           INT 3 
00004147 CC                                           INT 3 
00004148 CC                                           INT 3 
00004149 CC                                           INT 3 
0000414A CC                                           INT 3 
0000414B CC                                           INT 3 
0000414C CC                                           INT 3 
0000414D CC                                           INT 3 
0000414E CC                                           INT 3 
0000414F CC                                           INT 3 
00004150 CC                                           INT 3 
00004151 CC                                           INT 3 
00004152 CC                                           INT 3 
00004153 CC                                           INT 3 
00004154 CC                                           INT 3 
00004155 CC                                           INT 3 
00004156 CC                                           INT 3 
00004157 CC                                           INT 3 
00004158 CC                                           INT 3 
00004159 CC                                           INT 3 
0000415A CC                                           INT 3 
0000415B CC                                           INT 3 
0000415C CC                                           INT 3 
0000415D CC                                           INT 3 
0000415E CC                                           INT 3 
0000415F CC                                           INT 3 
00004160 CC                                           INT 3 
00004161 CC                                           INT 3 
00004162 CC                                           INT 3 
00004163 CC                                           INT 3 
00004164 CC                                           INT 3 
00004165 CC                                           INT 3 
00004166 CC                                           INT 3 
00004167 CC                                           INT 3 
00004168 CC                                           INT 3 
00004169 CC                                           INT 3 
0000416A CC                                           INT 3 
0000416B CC                                           INT 3 
0000416C CC                                           INT 3 
0000416D CC                                           INT 3 
0000416E CC                                           INT 3 
0000416F CC                                           INT 3 
00004170 CC                                           INT 3 
00004171 CC                                           INT 3 
00004172 CC                                           INT 3 
00004173 CC                                           INT 3 
00004174 CC                                           INT 3 
00004175 CC                                           INT 3 
00004176 CC                                           INT 3 
00004177 CC                                           INT 3 
00004178 CC                                           INT 3 
00004179 CC                                           INT 3 
0000417A CC                                           INT 3 
0000417B CC                                           INT 3 
0000417C CC                                           INT 3 
0000417D CC                                           INT 3 
0000417E CC                                           INT 3 
0000417F CC                                           INT 3 
00004180 CC                                           INT 3 
00004181 CC                                           INT 3 
00004182 CC                                           INT 3 
00004183 CC                                           INT 3 
00004184 CC                                           INT 3 
00004185 CC                                           INT 3 
00004186 CC                                           INT 3 
00004187 CC                                           INT 3 
00004188 CC                                           INT 3 
00004189 CC                                           INT 3 
0000418A CC                                           INT 3 
0000418B CC                                           INT 3 
0000418C CC                                           INT 3 
0000418D CC                                           INT 3 
0000418E CC                                           INT 3 
0000418F CC                                           INT 3 
00004190 CC                                           INT 3 
00004191 CC                                           INT 3 
00004192 CC                                           INT 3 
00004193 CC                                           INT 3 
00004194 CC                                           INT 3 
00004195 CC                                           INT 3 
00004196 CC                                           INT 3 
00004197 CC                                           INT 3 
00004198 CC                                           INT 3 
00004199 CC                                           INT 3 
0000419A CC                                           INT 3 
0000419B CC                                           INT 3 
0000419C CC                                           INT 3 
0000419D CC                                           INT 3 
0000419E CC                                           INT 3 
0000419F CC                                           INT 3 
000041A0 CC                                           INT 3 
000041A1 CC                                           INT 3 
000041A2 CC                                           INT 3 
000041A3 CC                                           INT 3 
000041A4 CC                                           INT 3 
000041A5 CC                                           INT 3 
000041A6 CC                                           INT 3 
000041A7 CC                                           INT 3 
000041A8 CC                                           INT 3 
000041A9 CC                                           INT 3 
000041AA CC                                           INT 3 
000041AB CC                                           INT 3 
000041AC CC                                           INT 3 
000041AD CC                                           INT 3 
000041AE CC                                           INT 3 
000041AF CC                                           INT 3 
000041B0 CC                                           INT 3 
000041B1 CC                                           INT 3 
000041B2 CC                                           INT 3 
000041B3 CC                                           INT 3 
000041B4 CC                                           INT 3 
000041B5 CC                                           INT 3 
000041B6 CC                                           INT 3 
000041B7 CC                                           INT 3 
000041B8 CC                                           INT 3 
000041B9 CC                                           INT 3 
000041BA CC                                           INT 3 
000041BB CC                                           INT 3 
000041BC CC                                           INT 3 
000041BD CC                                           INT 3 
000041BE CC                                           INT 3 
000041BF CC                                           INT 3 
000041C0 CC                                           INT 3 
000041C1 CC                                           INT 3 
000041C2 CC                                           INT 3 
000041C3 CC                                           INT 3 
000041C4 CC                                           INT 3 
000041C5 CC                                           INT 3 
000041C6 CC                                           INT 3 
000041C7 CC                                           INT 3 
000041C8 CC                                           INT 3 
000041C9 CC                                           INT 3 
000041CA CC                                           INT 3 
000041CB CC                                           INT 3 
000041CC CC                                           INT 3 
000041CD CC                                           INT 3 
000041CE CC                                           INT 3 
000041CF CC                                           INT 3 
000041D0 CC                                           INT 3 
000041D1 CC                                           INT 3 
000041D2 CC                                           INT 3 
000041D3 CC                                           INT 3 
000041D4 CC                                           INT 3 
000041D5 CC                                           INT 3 
000041D6 CC                                           INT 3 
000041D7 CC                                           INT 3 
000041D8 CC                                           INT 3 
000041D9 CC                                           INT 3 
000041DA CC                                           INT 3 
000041DB CC                                           INT 3 
000041DC CC                                           INT 3 
000041DD CC                                           INT 3 
000041DE CC                                           INT 3 
000041DF CC                                           INT 3 
000041E0 CC                                           INT 3 
000041E1 CC                                           INT 3 
000041E2 CC                                           INT 3 
000041E3 CC                                           INT 3 
000041E4 CC                                           INT 3 
000041E5 CC                                           INT 3 
000041E6 CC                                           INT 3 
000041E7 CC                                           INT 3 
000041E8 CC                                           INT 3 
000041E9 CC                                           INT 3 
000041EA CC                                           INT 3 
000041EB CC                                           INT 3 
000041EC CC                                           INT 3 
000041ED CC                                           INT 3 
000041EE CC                                           INT 3 
000041EF CC                                           INT 3 
000041F0 CC                                           INT 3 
000041F1 CC                                           INT 3 
000041F2 CC                                           INT 3 
000041F3 CC                                           INT 3 
000041F4 CC                                           INT 3 
000041F5 CC                                           INT 3 
000041F6 CC                                           INT 3 
000041F7 CC                                           INT 3 
000041F8 CC                                           INT 3 
000041F9 CC                                           INT 3 
000041FA CC                                           INT 3 
000041FB CC                                           INT 3 
000041FC CC                                           INT 3 
000041FD CC                                           INT 3 
000041FE CC                                           INT 3 
000041FF CC                                           INT 3 
00004200 CC                                           INT 3 
00004201 CC                                           INT 3 
00004202 CC                                           INT 3 
00004203 CC                                           INT 3 
00004204 CC                                           INT 3 
00004205 CC                                           INT 3 
00004206 CC                                           INT 3 
00004207 CC                                           INT 3 
00004208 CC                                           INT 3 
00004209 CC                                           INT 3 
0000420A CC                                           INT 3 
0000420B CC                                           INT 3 
0000420C CC                                           INT 3 
0000420D CC                                           INT 3 
0000420E CC                                           INT 3 
0000420F CC                                           INT 3 
00004210 CC                                           INT 3 
00004211 CC                                           INT 3 
00004212 CC                                           INT 3 
00004213 CC                                           INT 3 
00004214 CC                                           INT 3 
00004215 CC                                           INT 3 
00004216 CC                                           INT 3 
00004217 CC                                           INT 3 
00004218 CC                                           INT 3 
00004219 CC                                           INT 3 
0000421A CC                                           INT 3 
0000421B CC                                           INT 3 
0000421C CC                                           INT 3 
0000421D CC                                           INT 3 
0000421E CC                                           INT 3 
0000421F CC                                           INT 3 
00004220 CC                                           INT 3 
00004221 CC                                           INT 3 
00004222 CC                                           INT 3 
00004223 CC                                           INT 3 
00004224 CC                                           INT 3 
00004225 CC                                           INT 3 
00004226 CC                                           INT 3 
00004227 CC                                           INT 3 
00004228 CC                                           INT 3 
00004229 CC                                           INT 3 
0000422A CC                                           INT 3 
0000422B CC                                           INT 3 
0000422C CC                                           INT 3 
0000422D CC                                           INT 3 
0000422E CC                                           INT 3 
0000422F CC                                           INT 3 
00004230 CC                                           INT 3 
00004231 CC                                           INT 3 
00004232 CC                                           INT 3 
00004233 CC                                           INT 3 
00004234 CC                                           INT 3 
00004235 CC                                           INT 3 
00004236 CC                                           INT 3 
00004237 CC                                           INT 3 
00004238 CC                                           INT 3 
00004239 CC                                           INT 3 
0000423A CC                                           INT 3 
0000423B CC                                           INT 3 
0000423C CC                                           INT 3 
0000423D CC                                           INT 3 
0000423E CC                                           INT 3 
0000423F CC                                           INT 3 
00004240 CC                                           INT 3 
00004241 CC                                           INT 3 
00004242 CC                                           INT 3 
00004243 CC                                           INT 3 
00004244 CC                                           INT 3 
00004245 CC                                           INT 3 
00004246 CC                                           INT 3 
00004247 CC                                           INT 3 
00004248 CC                                           INT 3 
00004249 CC                                           INT 3 
0000424A CC                                           INT 3 
0000424B CC                                           INT 3 
0000424C CC                                           INT 3 
0000424D CC                                           INT 3 
0000424E CC                                           INT 3 
0000424F CC                                           INT 3 
00004250 CC                                           INT 3 
00004251 CC                                           INT 3 
00004252 CC                                           INT 3 
00004253 CC                                           INT 3 
00004254 CC                                           INT 3 
00004255 CC                                           INT 3 
00004256 CC                                           INT 3 
00004257 CC                                           INT 3 
00004258 CC                                           INT 3 
00004259 CC                                           INT 3 
0000425A CC                                           INT 3 
0000425B CC                                           INT 3 
0000425C CC                                           INT 3 
0000425D CC                                           INT 3 
0000425E CC                                           INT 3 
0000425F CC                                           INT 3 
00004260 CC                                           INT 3 
00004261 CC                                           INT 3 
00004262 CC                                           INT 3 
00004263 CC                                           INT 3 
00004264 CC                                           INT 3 
00004265 CC                                           INT 3 
00004266 CC                                           INT 3 
00004267 CC                                           INT 3 
00004268 CC                                           INT 3 
00004269 CC                                           INT 3 
0000426A CC                                           INT 3 
0000426B CC                                           INT 3 
0000426C CC                                           INT 3 
0000426D CC                                           INT 3 
0000426E CC                                           INT 3 
0000426F CC                                           INT 3 
00004270 CC                                           INT 3 
00004271 CC                                           INT 3 
00004272 CC                                           INT 3 
00004273 CC                                           INT 3 
00004274 CC                                           INT 3 
00004275 CC                                           INT 3 
00004276 CC                                           INT 3 
00004277 CC                                           INT 3 
00004278 CC                                           INT 3 
00004279 CC                                           INT 3 
0000427A CC                                           INT 3 
0000427B CC                                           INT 3 
0000427C CC                                           INT 3 
0000427D CC                                           INT 3 
0000427E CC                                           INT 3 
0000427F CC                                           INT 3 
00004280 CC                                           INT 3 
00004281 CC                                           INT 3 
00004282 CC                                           INT 3 
00004283 CC                                           INT 3 
00004284 CC                                           INT 3 
00004285 CC                                           INT 3 
00004286 CC                                           INT 3 
00004287 CC                                           INT 3 
00004288 CC                                           INT 3 
00004289 CC                                           INT 3 
0000428A CC                                           INT 3 
0000428B CC                                           INT 3 
0000428C CC                                           INT 3 
0000428D CC                                           INT 3 
0000428E CC                                           INT 3 
0000428F CC                                           INT 3 
00004290 CC                                           INT 3 
00004291 CC                                           INT 3 
00004292 CC                                           INT 3 
00004293 CC                                           INT 3 
00004294 CC                                           INT 3 
00004295 CC                                           INT 3 
00004296 CC                                           INT 3 
00004297 CC                                           INT 3 
00004298 CC                                           INT 3 
00004299 CC                                           INT 3 
0000429A CC                                           INT 3 
0000429B CC                                           INT 3 
0000429C CC                                           INT 3 
0000429D CC                                           INT 3 
0000429E CC                                           INT 3 
0000429F CC                                           INT 3 
000042A0 CC                                           INT 3 
000042A1 CC                                           INT 3 
000042A2 CC                                           INT 3 
000042A3 CC                                           INT 3 
000042A4 CC                                           INT 3 
000042A5 CC                                           INT 3 
000042A6 CC                                           INT 3 
000042A7 CC                                           INT 3 
000042A8 CC                                           INT 3 
000042A9 CC                                           INT 3 
000042AA CC                                           INT 3 
000042AB CC                                           INT 3 
000042AC CC                                           INT 3 
000042AD CC                                           INT 3 
000042AE CC                                           INT 3 
000042AF CC                                           INT 3 
000042B0 CC                                           INT 3 
000042B1 CC                                           INT 3 
000042B2 CC                                           INT 3 
000042B3 CC                                           INT 3 
000042B4 CC                                           INT 3 
000042B5 CC                                           INT 3 
000042B6 CC                                           INT 3 
000042B7 CC                                           INT 3 
000042B8 CC                                           INT 3 
000042B9 CC                                           INT 3 
000042BA CC                                           INT 3 
000042BB CC                                           INT 3 
000042BC CC                                           INT 3 
000042BD CC                                           INT 3 
000042BE CC                                           INT 3 
000042BF CC                                           INT 3 
000042C0 CC                                           INT 3 
000042C1 CC                                           INT 3 
000042C2 CC                                           INT 3 
000042C3 CC                                           INT 3 
000042C4 CC                                           INT 3 
000042C5 CC                                           INT 3 
000042C6 CC                                           INT 3 
000042C7 CC                                           INT 3 
000042C8 CC                                           INT 3 
000042C9 CC                                           INT 3 
000042CA CC                                           INT 3 
000042CB CC                                           INT 3 
000042CC CC                                           INT 3 
000042CD CC                                           INT 3 
000042CE CC                                           INT 3 
000042CF CC                                           INT 3 
000042D0 CC                                           INT 3 
000042D1 CC                                           INT 3 
000042D2 CC                                           INT 3 
000042D3 CC                                           INT 3 
000042D4 CC                                           INT 3 
000042D5 CC                                           INT 3 
000042D6 CC                                           INT 3 
000042D7 CC                                           INT 3 
000042D8 CC                                           INT 3 
000042D9 CC                                           INT 3 
000042DA CC                                           INT 3 
000042DB CC                                           INT 3 
000042DC CC                                           INT 3 
000042DD CC                                           INT 3 
000042DE CC                                           INT 3 
000042DF CC                                           INT 3 
000042E0 CC                                           INT 3 
000042E1 CC                                           INT 3 
000042E2 CC                                           INT 3 
000042E3 CC                                           INT 3 
000042E4 CC                                           INT 3 
000042E5 CC                                           INT 3 
000042E6 CC                                           INT 3 
000042E7 CC                                           INT 3 
000042E8 CC                                           INT 3 
000042E9 CC                                           INT 3 
000042EA CC                                           INT 3 
000042EB CC                                           INT 3 
000042EC CC                                           INT 3 
000042ED CC                                           INT 3 
000042EE CC                                           INT 3 
000042EF CC                                           INT 3 
000042F0 CC                                           INT 3 
000042F1 CC                                           INT 3 
000042F2 CC                                           INT 3 
000042F3 CC                                           INT 3 
000042F4 CC                                           INT 3 
000042F5 CC                                           INT 3 
000042F6 CC                                           INT 3 
000042F7 CC                                           INT 3 
000042F8 CC                                           INT 3 
000042F9 CC                                           INT 3 
000042FA CC                                           INT 3 
000042FB CC                                           INT 3 
000042FC CC                                           INT 3 
000042FD CC                                           INT 3 
000042FE CC                                           INT 3 
000042FF CC                                           INT 3 
00004300 CC                                           INT 3 
00004301 CC                                           INT 3 
00004302 CC                                           INT 3 
00004303 CC                                           INT 3 
00004304 CC                                           INT 3 
00004305 CC                                           INT 3 
00004306 CC                                           INT 3 
00004307 CC                                           INT 3 
00004308 CC                                           INT 3 
00004309 CC                                           INT 3 
0000430A CC                                           INT 3 
0000430B CC                                           INT 3 
0000430C CC                                           INT 3 
0000430D CC                                           INT 3 
0000430E CC                                           INT 3 
0000430F CC                                           INT 3 
00004310 CC                                           INT 3 
00004311 CC                                           INT 3 
00004312 CC                                           INT 3 
00004313 CC                                           INT 3 
00004314 CC                                           INT 3 
00004315 CC                                           INT 3 
00004316 CC                                           INT 3 
00004317 CC                                           INT 3 
00004318 CC                                           INT 3 
00004319 CC                                           INT 3 
0000431A CC                                           INT 3 
0000431B CC                                           INT 3 
0000431C CC                                           INT 3 
0000431D CC                                           INT 3 
0000431E CC                                           INT 3 
0000431F CC                                           INT 3 
00004320 CC                                           INT 3 
00004321 CC                                           INT 3 
00004322 CC                                           INT 3 
00004323 CC                                           INT 3 
00004324 CC                                           INT 3 
00004325 CC                                           INT 3 
00004326 CC                                           INT 3 
00004327 CC                                           INT 3 
00004328 CC                                           INT 3 
00004329 CC                                           INT 3 
0000432A CC                                           INT 3 
0000432B CC                                           INT 3 
0000432C CC                                           INT 3 
0000432D CC                                           INT 3 
0000432E CC                                           INT 3 
0000432F CC                                           INT 3 
00004330 CC                                           INT 3 
00004331 CC                                           INT 3 
00004332 CC                                           INT 3 
00004333 CC                                           INT 3 
00004334 CC                                           INT 3 
00004335 CC                                           INT 3 
00004336 CC                                           INT 3 
00004337 CC                                           INT 3 
00004338 CC                                           INT 3 
00004339 CC                                           INT 3 
0000433A CC                                           INT 3 
0000433B CC                                           INT 3 
0000433C CC                                           INT 3 
0000433D CC                                           INT 3 
0000433E CC                                           INT 3 
0000433F CC                                           INT 3 
00004340 CC                                           INT 3 
00004341 CC                                           INT 3 
00004342 CC                                           INT 3 
00004343 CC                                           INT 3 
00004344 CC                                           INT 3 
00004345 CC                                           INT 3 
00004346 CC                                           INT 3 
00004347 CC                                           INT 3 
00004348 CC                                           INT 3 
00004349 CC                                           INT 3 
0000434A CC                                           INT 3 
0000434B CC                                           INT 3 
0000434C CC                                           INT 3 
0000434D CC                                           INT 3 
0000434E CC                                           INT 3 
0000434F CC                                           INT 3 
00004350 CC                                           INT 3 
00004351 CC                                           INT 3 
00004352 CC                                           INT 3 
00004353 CC                                           INT 3 
00004354 CC                                           INT 3 
00004355 CC                                           INT 3 
00004356 CC                                           INT 3 
00004357 CC                                           INT 3 
00004358 CC                                           INT 3 
00004359 CC                                           INT 3 
0000435A CC                                           INT 3 
0000435B CC                                           INT 3 
0000435C CC                                           INT 3 
0000435D CC                                           INT 3 
0000435E CC                                           INT 3 
0000435F CC                                           INT 3 
00004360 CC                                           INT 3 
00004361 CC                                           INT 3 
00004362 CC                                           INT 3 
00004363 CC                                           INT 3 
00004364 CC                                           INT 3 
00004365 CC                                           INT 3 
00004366 CC                                           INT 3 
00004367 CC                                           INT 3 
00004368 CC                                           INT 3 
00004369 CC                                           INT 3 
0000436A CC                                           INT 3 
0000436B CC                                           INT 3 
0000436C CC                                           INT 3 
0000436D CC                                           INT 3 
0000436E CC                                           INT 3 
0000436F CC                                           INT 3 
00004370 CC                                           INT 3 
00004371 CC                                           INT 3 
00004372 CC                                           INT 3 
00004373 CC                                           INT 3 
00004374 CC                                           INT 3 
00004375 CC                                           INT 3 
00004376 CC                                           INT 3 
00004377 CC                                           INT 3 
00004378 CC                                           INT 3 
00004379 CC                                           INT 3 
0000437A CC                                           INT 3 
0000437B CC                                           INT 3 
0000437C CC                                           INT 3 
0000437D CC                                           INT 3 
0000437E CC                                           INT 3 
0000437F CC                                           INT 3 
00004380 CC                                           INT 3 
00004381 CC                                           INT 3 
00004382 CC                                           INT 3 
00004383 CC                                           INT 3 
00004384 CC                                           INT 3 
00004385 CC                                           INT 3 
00004386 CC                                           INT 3 
00004387 CC                                           INT 3 
00004388 CC                                           INT 3 
00004389 CC                                           INT 3 
0000438A CC                                           INT 3 
0000438B CC                                           INT 3 
0000438C CC                                           INT 3 
0000438D CC                                           INT 3 
0000438E CC                                           INT 3 
0000438F CC                                           INT 3 
00004390 CC                                           INT 3 
00004391 CC                                           INT 3 
00004392 CC                                           INT 3 
00004393 CC                                           INT 3 
00004394 CC                                           INT 3 
00004395 CC                                           INT 3 
00004396 CC                                           INT 3 
00004397 CC                                           INT 3 
00004398 CC                                           INT 3 
00004399 CC                                           INT 3 
0000439A CC                                           INT 3 
0000439B CC                                           INT 3 
0000439C CC                                           INT 3 
0000439D CC                                           INT 3 
0000439E CC                                           INT 3 
0000439F CC                                           INT 3 
000043A0 CC                                           INT 3 
000043A1 CC                                           INT 3 
000043A2 CC                                           INT 3 
000043A3 CC                                           INT 3 
000043A4 CC                                           INT 3 
000043A5 CC                                           INT 3 
000043A6 CC                                           INT 3 
000043A7 CC                                           INT 3 
000043A8 CC                                           INT 3 
000043A9 CC                                           INT 3 
000043AA CC                                           INT 3 
000043AB CC                                           INT 3 
000043AC CC                                           INT 3 
000043AD CC                                           INT 3 
000043AE CC                                           INT 3 
000043AF CC                                           INT 3 
000043B0 CC                                           INT 3 
000043B1 CC                                           INT 3 
000043B2 CC                                           INT 3 
000043B3 CC                                           INT 3 
000043B4 CC                                           INT 3 
000043B5 CC                                           INT 3 
000043B6 CC                                           INT 3 
000043B7 CC                                           INT 3 
000043B8 CC                                           INT 3 
000043B9 CC                                           INT 3 
000043BA CC                                           INT 3 
000043BB CC                                           INT 3 
000043BC CC                                           INT 3 
000043BD CC                                           INT 3 
000043BE CC                                           INT 3 
000043BF CC                                           INT 3 
000043C0 CC                                           INT 3 
000043C1 CC                                           INT 3 
000043C2 CC                                           INT 3 
000043C3 CC                                           INT 3 
000043C4 CC                                           INT 3 
000043C5 CC                                           INT 3 
000043C6 CC                                           INT 3 
000043C7 CC                                           INT 3 
000043C8 CC                                           INT 3 
000043C9 CC                                           INT 3 
000043CA CC                                           INT 3 
000043CB CC                                           INT 3 
000043CC CC                                           INT 3 
000043CD CC                                           INT 3 
000043CE CC                                           INT 3 
000043CF CC                                           INT 3 
000043D0 CC                                           INT 3 
000043D1 CC                                           INT 3 
000043D2 CC                                           INT 3 
000043D3 CC                                           INT 3 
000043D4 CC                                           INT 3 
000043D5 CC                                           INT 3 
000043D6 CC                                           INT 3 
000043D7 CC                                           INT 3 
000043D8 CC                                           INT 3 
000043D9 CC                                           INT 3 
000043DA CC                                           INT 3 
000043DB CC                                           INT 3 
000043DC CC                                           INT 3 
000043DD CC                                           INT 3 
000043DE CC                                           INT 3 
000043DF CC                                           INT 3 
000043E0 CC                                           INT 3 
000043E1 CC                                           INT 3 
000043E2 CC                                           INT 3 
000043E3 CC                                           INT 3 
000043E4 CC                                           INT 3 
000043E5 CC                                           INT 3 
000043E6 CC                                           INT 3 
000043E7 CC                                           INT 3 
000043E8 CC                                           INT 3 
000043E9 CC                                           INT 3 
000043EA CC                                           INT 3 
000043EB CC                                           INT 3 
000043EC CC                                           INT 3 
000043ED CC                                           INT 3 
000043EE CC                                           INT 3 
000043EF CC                                           INT 3 
000043F0 CC                                           INT 3 
000043F1 CC                                           INT 3 
000043F2 CC                                           INT 3 
000043F3 CC                                           INT 3 
000043F4 CC                                           INT 3 
000043F5 CC                                           INT 3 
000043F6 CC                                           INT 3 
000043F7 CC                                           INT 3 
000043F8 CC                                           INT 3 
000043F9 CC                                           INT 3 
000043FA CC                                           INT 3 
000043FB CC                                           INT 3 
000043FC CC                                           INT 3 
000043FD CC                                           INT 3 
000043FE CC                                           INT 3 
000043FF CC                                           INT 3 
00004400 CC                                           INT 3 
00004401 CC                                           INT 3 
00004402 CC                                           INT 3 
00004403 CC                                           INT 3 
00004404 CC                                           INT 3 
00004405 CC                                           INT 3 
00004406 CC                                           INT 3 
00004407 CC                                           INT 3 
00004408 CC                                           INT 3 
00004409 CC                                           INT 3 
0000440A CC                                           INT 3 
0000440B CC                                           INT 3 
0000440C CC                                           INT 3 
0000440D CC                                           INT 3 
0000440E CC                                           INT 3 
0000440F CC                                           INT 3 
00004410 CC                                           INT 3 
00004411 CC                                           INT 3 
00004412 CC                                           INT 3 
00004413 CC                                           INT 3 
00004414 CC                                           INT 3 
00004415 CC                                           INT 3 
00004416 CC                                           INT 3 
00004417 CC                                           INT 3 
00004418 CC                                           INT 3 
00004419 CC                                           INT 3 
0000441A CC                                           INT 3 
0000441B CC                                           INT 3 
0000441C CC                                           INT 3 
0000441D CC                                           INT 3 
0000441E CC                                           INT 3 
0000441F CC                                           INT 3 
00004420 CC                                           INT 3 
00004421 CC                                           INT 3 
00004422 CC                                           INT 3 
00004423 CC                                           INT 3 
00004424 CC                                           INT 3 
00004425 CC                                           INT 3 
00004426 CC                                           INT 3 
00004427 CC                                           INT 3 
00004428 CC                                           INT 3 
00004429 CC                                           INT 3 
0000442A CC                                           INT 3 
0000442B CC                                           INT 3 
0000442C CC                                           INT 3 
0000442D CC                                           INT 3 
0000442E CC                                           INT 3 
0000442F CC                                           INT 3 
00004430 CC                                           INT 3 
00004431 CC                                           INT 3 
00004432 CC                                           INT 3 
00004433 CC                                           INT 3 
00004434 CC                                           INT 3 
00004435 CC                                           INT 3 
00004436 CC                                           INT 3 
00004437 CC                                           INT 3 
00004438 CC                                           INT 3 
00004439 CC                                           INT 3 
0000443A CC                                           INT 3 
0000443B CC                                           INT 3 
0000443C CC                                           INT 3 
0000443D CC                                           INT 3 
0000443E CC                                           INT 3 
0000443F CC                                           INT 3 
00004440 CC                                           INT 3 
00004441 CC                                           INT 3 
00004442 CC                                           INT 3 
00004443 CC                                           INT 3 
00004444 CC                                           INT 3 
00004445 CC                                           INT 3 
00004446 CC                                           INT 3 
00004447 CC                                           INT 3 
00004448 CC                                           INT 3 
00004449 CC                                           INT 3 
0000444A CC                                           INT 3 
0000444B CC                                           INT 3 
0000444C CC                                           INT 3 
0000444D CC                                           INT 3 
0000444E CC                                           INT 3 
0000444F CC                                           INT 3 
00004450 CC                                           INT 3 
00004451 CC                                           INT 3 
00004452 CC                                           INT 3 
00004453 CC                                           INT 3 
00004454 CC                                           INT 3 
00004455 CC                                           INT 3 
00004456 CC                                           INT 3 
00004457 CC                                           INT 3 
00004458 CC                                           INT 3 
00004459 CC                                           INT 3 
0000445A CC                                           INT 3 
0000445B CC                                           INT 3 
0000445C CC                                           INT 3 
0000445D CC                                           INT 3 
0000445E CC                                           INT 3 
0000445F CC                                           INT 3 
00004460 CC                                           INT 3 
00004461 CC                                           INT 3 
00004462 CC                                           INT 3 
00004463 CC                                           INT 3 
00004464 CC                                           INT 3 
00004465 CC                                           INT 3 
00004466 CC                                           INT 3 
00004467 CC                                           INT 3 
00004468 CC                                           INT 3 
00004469 CC                                           INT 3 
0000446A CC                                           INT 3 
0000446B CC                                           INT 3 
0000446C CC                                           INT 3 
0000446D CC                                           INT 3 
0000446E CC                                           INT 3 
0000446F CC                                           INT 3 
00004470 CC                                           INT 3 
00004471 CC                                           INT 3 
00004472 CC                                           INT 3 
00004473 CC                                           INT 3 
00004474 CC                                           INT 3 
00004475 CC                                           INT 3 
00004476 CC                                           INT 3 
00004477 CC                                           INT 3 
00004478 CC                                           INT 3 
00004479 CC                                           INT 3 
0000447A CC                                           INT 3 
0000447B CC                                           INT 3 
0000447C CC                                           INT 3 
0000447D CC                                           INT 3 
0000447E CC                                           INT 3 
0000447F CC                                           INT 3 
00004480 CC                                           INT 3 
00004481 CC                                           INT 3 
00004482 CC                                           INT 3 
00004483 CC                                           INT 3 
00004484 CC                                           INT 3 
00004485 CC                                           INT 3 
00004486 CC                                           INT 3 
00004487 CC                                           INT 3 
00004488 CC                                           INT 3 
00004489 CC                                           INT 3 
0000448A CC                                           INT 3 
0000448B CC                                           INT 3 
0000448C CC                                           INT 3 
0000448D CC                                           INT 3 
0000448E CC                                           INT 3 
0000448F CC                                           INT 3 
00004490 CC                                           INT 3 
00004491 CC                                           INT 3 
00004492 CC                                           INT 3 
00004493 CC                                           INT 3 
00004494 CC                                           INT 3 
00004495 CC                                           INT 3 
00004496 CC                                           INT 3 
00004497 CC                                           INT 3 
00004498 CC                                           INT 3 
00004499 CC                                           INT 3 
0000449A CC                                           INT 3 
0000449B CC                                           INT 3 
0000449C CC                                           INT 3 
0000449D CC                                           INT 3 
0000449E CC                                           INT 3 
0000449F CC                                           INT 3 
000044A0 CC                                           INT 3 
000044A1 CC                                           INT 3 
000044A2 CC                                           INT 3 
000044A3 CC                                           INT 3 
000044A4 CC                                           INT 3 
000044A5 CC                                           INT 3 
000044A6 CC                                           INT 3 
000044A7 CC                                           INT 3 
000044A8 CC                                           INT 3 
000044A9 CC                                           INT 3 
000044AA CC                                           INT 3 
000044AB CC                                           INT 3 
000044AC CC                                           INT 3 
000044AD CC                                           INT 3 
000044AE CC                                           INT 3 
000044AF CC                                           INT 3 
000044B0 CC                                           INT 3 
000044B1 CC                                           INT 3 
000044B2 CC                                           INT 3 
000044B3 CC                                           INT 3 
000044B4 CC                                           INT 3 
000044B5 CC                                           INT 3 
000044B6 CC                                           INT 3 
000044B7 CC                                           INT 3 
000044B8 CC                                           INT 3 
000044B9 CC                                           INT 3 
000044BA CC                                           INT 3 
000044BB CC                                           INT 3 
000044BC CC                                           INT 3 
000044BD CC                                           INT 3 
000044BE CC                                           INT 3 
000044BF CC                                           INT 3 
000044C0 CC                                           INT 3 
000044C1 CC                                           INT 3 
000044C2 CC                                           INT 3 
000044C3 CC                                           INT 3 
000044C4 CC                                           INT 3 
000044C5 CC                                           INT 3 
000044C6 CC                                           INT 3 
000044C7 CC                                           INT 3 
000044C8 CC                                           INT 3 
000044C9 CC                                           INT 3 
000044CA CC                                           INT 3 
000044CB CC                                           INT 3 
000044CC CC                                           INT 3 
000044CD CC                                           INT 3 
000044CE CC                                           INT 3 
000044CF CC                                           INT 3 
000044D0 CC                                           INT 3 
000044D1 CC                                           INT 3 
000044D2 CC                                           INT 3 
000044D3 CC                                           INT 3 
000044D4 CC                                           INT 3 
000044D5 CC                                           INT 3 
000044D6 CC                                           INT 3 
000044D7 CC                                           INT 3 
000044D8 CC                                           INT 3 
000044D9 CC                                           INT 3 
000044DA CC                                           INT 3 
000044DB CC                                           INT 3 
000044DC CC                                           INT 3 
000044DD CC                                           INT 3 
000044DE CC                                           INT 3 
000044DF CC                                           INT 3 
000044E0 CC                                           INT 3 
000044E1 CC                                           INT 3 
000044E2 CC                                           INT 3 
000044E3 CC                                           INT 3 
000044E4 CC                                           INT 3 
000044E5 CC                                           INT 3 
000044E6 CC                                           INT 3 
000044E7 CC                                           INT 3 
000044E8 CC                                           INT 3 
000044E9 CC                                           INT 3 
000044EA CC                                           INT 3 
000044EB CC                                           INT 3 
000044EC CC                                           INT 3 
000044ED CC                                           INT 3 
000044EE CC                                           INT 3 
000044EF CC                                           INT 3 
000044F0 CC                                           INT 3 
000044F1 CC                                           INT 3 
000044F2 CC                                           INT 3 
000044F3 CC                                           INT 3 
000044F4 CC                                           INT 3 
000044F5 CC                                           INT 3 
000044F6 CC                                           INT 3 
000044F7 CC                                           INT 3 
000044F8 CC                                           INT 3 
000044F9 CC                                           INT 3 
000044FA CC                                           INT 3 
000044FB CC                                           INT 3 
000044FC CC                                           INT 3 
000044FD CC                                           INT 3 
000044FE CC                                           INT 3 
000044FF CC                                           INT 3 
00004500 CC                                           INT 3 
00004501 CC                                           INT 3 
00004502 CC                                           INT 3 
00004503 CC                                           INT 3 
00004504 CC                                           INT 3 
00004505 CC                                           INT 3 
00004506 CC                                           INT 3 
00004507 CC                                           INT 3 
00004508 CC                                           INT 3 
00004509 CC                                           INT 3 
0000450A CC                                           INT 3 
0000450B CC                                           INT 3 
0000450C CC                                           INT 3 
0000450D CC                                           INT 3 
0000450E CC                                           INT 3 
0000450F CC                                           INT 3 
00004510 CC                                           INT 3 
00004511 CC                                           INT 3 
00004512 CC                                           INT 3 
00004513 CC                                           INT 3 
00004514 CC                                           INT 3 
00004515 CC                                           INT 3 
00004516 CC                                           INT 3 
00004517 CC                                           INT 3 
00004518 CC                                           INT 3 
00004519 CC                                           INT 3 
0000451A CC                                           INT 3 
0000451B CC                                           INT 3 
0000451C CC                                           INT 3 
0000451D CC                                           INT 3 
0000451E CC                                           INT 3 
0000451F CC                                           INT 3 
00004520 CC                                           INT 3 
00004521 CC                                           INT 3 
00004522 CC                                           INT 3 
00004523 CC                                           INT 3 
00004524 CC                                           INT 3 
00004525 CC                                           INT 3 
00004526 CC                                           INT 3 
00004527 CC                                           INT 3 
00004528 CC                                           INT 3 
00004529 CC                                           INT 3 
0000452A CC                                           INT 3 
0000452B CC                                           INT 3 
0000452C CC                                           INT 3 
0000452D CC                                           INT 3 
0000452E CC                                           INT 3 
0000452F CC                                           INT 3 
00004530 CC                                           INT 3 
00004531 CC                                           INT 3 
00004532 CC                                           INT 3 
00004533 CC                                           INT 3 
00004534 CC                                           INT 3 
00004535 CC                                           INT 3 
00004536 CC                                           INT 3 
00004537 CC                                           INT 3 
00004538 CC                                           INT 3 
00004539 CC                                           INT 3 
0000453A CC                                           INT 3 
0000453B CC                                           INT 3 
0000453C CC                                           INT 3 
0000453D CC                                           INT 3 
0000453E CC                                           INT 3 
0000453F CC                                           INT 3 
00004540 CC                                           INT 3 
00004541 CC                                           INT 3 
00004542 CC                                           INT 3 
00004543 CC                                           INT 3 
00004544 CC                                           INT 3 
00004545 CC                                           INT 3 
00004546 CC                                           INT 3 
00004547 CC                                           INT 3 
00004548 CC                                           INT 3 
00004549 CC                                           INT 3 
0000454A CC                                           INT 3 
0000454B CC                                           INT 3 
0000454C CC                                           INT 3 
0000454D CC                                           INT 3 
0000454E CC                                           INT 3 
0000454F CC                                           INT 3 
00004550 CC                                           INT 3 
00004551 CC                                           INT 3 
00004552 CC                                           INT 3 
00004553 CC                                           INT 3 
00004554 CC                                           INT 3 
00004555 CC                                           INT 3 
00004556 CC                                           INT 3 
00004557 CC                                           INT 3 
00004558 CC                                           INT 3 
00004559 CC                                           INT 3 
0000455A CC                                           INT 3 
0000455B CC                                           INT 3 
0000455C CC                                           INT 3 
0000455D CC                                           INT 3 
0000455E CC                                           INT 3 
0000455F CC                                           INT 3 
00004560 CC                                           INT 3 
00004561 CC                                           INT 3 
00004562 CC                                           INT 3 
00004563 CC                                           INT 3 
00004564 CC                                           INT 3 
00004565 CC                                           INT 3 
00004566 CC                                           INT 3 
00004567 CC                                           INT 3 
00004568 CC                                           INT 3 
00004569 CC                                           INT 3 
0000456A CC                                           INT 3 
0000456B CC                                           INT 3 
0000456C CC                                           INT 3 
0000456D CC                                           INT 3 
0000456E CC                                           INT 3 
0000456F CC                                           INT 3 
00004570 CC                                           INT 3 
00004571 CC                                           INT 3 
00004572 CC                                           INT 3 
00004573 CC                                           INT 3 
00004574 CC                                           INT 3 
00004575 CC                                           INT 3 
00004576 CC                                           INT 3 
00004577 CC                                           INT 3 
00004578 CC                                           INT 3 
00004579 CC                                           INT 3 
0000457A CC                                           INT 3 
0000457B CC                                           INT 3 
0000457C CC                                           INT 3 
0000457D CC                                           INT 3 
0000457E CC                                           INT 3 
0000457F CC                                           INT 3 
00004580 CC                                           INT 3 
00004581 CC                                           INT 3 
00004582 CC                                           INT 3 
00004583 CC                                           INT 3 
00004584 CC                                           INT 3 
00004585 CC                                           INT 3 
00004586 CC                                           INT 3 
00004587 CC                                           INT 3 
00004588 CC                                           INT 3 
00004589 CC                                           INT 3 
0000458A CC                                           INT 3 
0000458B CC                                           INT 3 
0000458C CC                                           INT 3 
0000458D CC                                           INT 3 
0000458E CC                                           INT 3 
0000458F CC                                           INT 3 
00004590 CC                                           INT 3 
00004591 CC                                           INT 3 
00004592 CC                                           INT 3 
00004593 CC                                           INT 3 
00004594 CC                                           INT 3 
00004595 CC                                           INT 3 
00004596 CC                                           INT 3 
00004597 CC                                           INT 3 
00004598 CC                                           INT 3 
00004599 CC                                           INT 3 
0000459A CC                                           INT 3 
0000459B CC                                           INT 3 
0000459C CC                                           INT 3 
0000459D CC                                           INT 3 
0000459E CC                                           INT 3 
0000459F CC                                           INT 3 
000045A0 CC                                           INT 3 
000045A1 CC                                           INT 3 
000045A2 CC                                           INT 3 
000045A3 CC                                           INT 3 
000045A4 CC                                           INT 3 
000045A5 CC                                           INT 3 
000045A6 CC                                           INT 3 
000045A7 CC                                           INT 3 
000045A8 CC                                           INT 3 
000045A9 CC                                           INT 3 
000045AA CC                                           INT 3 
000045AB CC                                           INT 3 
000045AC CC                                           INT 3 
000045AD CC                                           INT 3 
000045AE CC                                           INT 3 
000045AF CC                                           INT 3 
000045B0 CC                                           INT 3 
000045B1 CC                                           INT 3 
000045B2 CC                                           INT 3 
000045B3 CC                                           INT 3 
000045B4 CC                                           INT 3 
000045B5 CC                                           INT 3 
000045B6 CC                                           INT 3 
000045B7 CC                                           INT 3 
000045B8 CC                                           INT 3 
000045B9 CC                                           INT 3 
000045BA CC                                           INT 3 
000045BB CC                                           INT 3 
000045BC CC                                           INT 3 
000045BD CC                                           INT 3 
000045BE CC                                           INT 3 
000045BF CC                                           INT 3 
000045C0 CC                                           INT 3 
000045C1 CC                                           INT 3 
000045C2 CC                                           INT 3 
000045C3 CC                                           INT 3 
000045C4 CC                                           INT 3 
000045C5 CC                                           INT 3 
000045C6 CC                                           INT 3 
000045C7 CC                                           INT 3 
000045C8 CC                                           INT 3 
000045C9 CC                                           INT 3 
000045CA CC                                           INT 3 
000045CB CC                                           INT 3 
000045CC CC                                           INT 3 
000045CD CC                                           INT 3 
000045CE CC                                           INT 3 
000045CF CC                                           INT 3 
000045D0 CC                                           INT 3 
000045D1 CC                                           INT 3 
000045D2 CC                                           INT 3 
000045D3 CC                                           INT 3 
000045D4 CC                                           INT 3 
000045D5 CC                                           INT 3 
000045D6 CC                                           INT 3 
000045D7 CC                                           INT 3 
000045D8 CC                                           INT 3 
000045D9 CC                                           INT 3 
000045DA CC                                           INT 3 
000045DB CC                                           INT 3 
000045DC CC                                           INT 3 
000045DD CC                                           INT 3 
000045DE CC                                           INT 3 
000045DF CC                                           INT 3 
000045E0 CC                                           INT 3 
000045E1 CC                                           INT 3 
000045E2 CC                                           INT 3 
000045E3 CC                                           INT 3 
000045E4 CC                                           INT 3 
000045E5 CC                                           INT 3 
000045E6 CC                                           INT 3 
000045E7 CC                                           INT 3 
000045E8 CC                                           INT 3 
000045E9 CC                                           INT 3 
000045EA CC                                           INT 3 
000045EB CC                                           INT 3 
000045EC CC                                           INT 3 
000045ED CC                                           INT 3 
000045EE CC                                           INT 3 
000045EF CC                                           INT 3 
000045F0 CC                                           INT 3 
000045F1 CC                                           INT 3 
000045F2 CC                                           INT 3 
000045F3 CC                                           INT 3 
000045F4 CC                                           INT 3 
000045F5 CC                                           INT 3 
000045F6 CC                                           INT 3 
000045F7 CC                                           INT 3 
000045F8 CC                                           INT 3 
000045F9 CC                                           INT 3 
000045FA CC                                           INT 3 
000045FB CC                                           INT 3 
000045FC CC                                           INT 3 
000045FD CC                                           INT 3 
000045FE CC                                           INT 3 
000045FF CC                                           INT 3 
00004600 40 55                                        PUSH RBP
00004602 48 83 EC 30                                  SUB RSP, 30h
00004606 48 8B EA                                     MOV RBP, RDX
00004609 48 89 4D 60                                  MOV QWORD PTR [RBP+60h], RCX
0000460D 48 8B 45 60                                  MOV RAX, QWORD PTR [RBP+60h]
00004611 48 8B 00                                     MOV RAX, QWORD PTR [RAX]
00004614 8B 00                                        MOV EAX, DWORD PTR [RAX]
00004616 89 45 44                                     MOV DWORD PTR [RBP+44h], EAX
00004619 48 8B 45 60                                  MOV RAX, QWORD PTR [RBP+60h]
0000461D 8B 4D 44                                     MOV ECX, DWORD PTR [RBP+44h]
00004620 48 8B D0                                     MOV RDX, RAX
00004623 E8 C0 D7 FF FF                               CALL 1de8h
00004628 90                                           NOP 
00004629 48 83 C4 30                                  ADD RSP, 30h
0000462D 5D                                           POP RBP
0000462E C3                                           RET 
0000462F CC                                           INT 3 
00004630 40 55                                        PUSH RBP
00004632 48 83 EC 20                                  SUB RSP, 20h
00004636 48 8B EA                                     MOV RBP, RDX
00004639 48 8B 01                                     MOV RAX, QWORD PTR [RCX]
0000463C 33 C9                                        XOR ECX, ECX
0000463E 81 38 88 13 6D 40                            CMP DWORD PTR [RAX], 406d1388h
00004644 0F 94 C1                                     SETZ CL
00004647 8B C1                                        MOV EAX, ECX
00004649 48 83 C4 20                                  ADD RSP, 20h
0000464D 5D                                           POP RBP
0000464E C3                                           RET 
0000464F CC                                           INT 3 
00004650 40 55                                        PUSH RBP
00004652 48 83 EC 20                                  SUB RSP, 20h
00004656 48 8B EA                                     MOV RBP, RDX
00004659 48 8B 01                                     MOV RAX, QWORD PTR [RCX]
0000465C 33 C9                                        XOR ECX, ECX
0000465E 81 38 88 13 6D 40                            CMP DWORD PTR [RAX], 406d1388h
00004664 0F 94 C1                                     SETZ CL
00004667 8B C1                                        MOV EAX, ECX
00004669 48 83 C4 20                                  ADD RSP, 20h
0000466D 5D                                           POP RBP
0000466E C3                                           RET 
0000466F CC                                           INT 3 
00004670 40 55                                        PUSH RBP
00004672 48 83 EC 20                                  SUB RSP, 20h
00004676 48 8B EA                                     MOV RBP, RDX
00004679 48 89 4D 48                                  MOV QWORD PTR [RBP+48h], RCX
0000467D 48 8B 45 48                                  MOV RAX, QWORD PTR [RBP+48h]
00004681 48 8B 00                                     MOV RAX, QWORD PTR [RAX]
00004684 8B 00                                        MOV EAX, DWORD PTR [RAX]
00004686 89 45 28                                     MOV DWORD PTR [RBP+28h], EAX
00004689 8B 45 28                                     MOV EAX, DWORD PTR [RBP+28h]
0000468C 3D 05 00 00 C0                               CMP EAX, c0000005h
00004691 75 09                                        JNZ 469ch
00004693 C7 45 24 01 00 00 00                         MOV DWORD PTR [RBP+24h], 1h
0000469A EB 07                                        JMP 46a3h
0000469C C7 45 24 00 00 00 00                         MOV DWORD PTR [RBP+24h], 0h
000046A3 8B 45 24                                     MOV EAX, DWORD PTR [RBP+24h]
000046A6 48 83 C4 20                                  ADD RSP, 20h
000046AA 5D                                           POP RBP
000046AB C3                                           RET 
000046AC CC                                           INT 3 
000046AD CC                                           INT 3 
000046AE CC                                           INT 3 
000046AF CC                                           INT 3 
000046B0 40 55                                        PUSH RBP
000046B2 48 83 EC 20                                  SUB RSP, 20h
000046B6 48 8B EA                                     MOV RBP, RDX
000046B9 B9 08 00 00 00                               MOV ECX, 8h
000046BE E8 77 E5 FF FF                               CALL 2c3ah
000046C3 90                                           NOP 
000046C4 48 83 C4 20                                  ADD RSP, 20h
000046C8 5D                                           POP RBP
000046C9 C3                                           RET 
000046CA CC                                           INT 3 
000046CB CC                                           INT 3 
000046CC CC                                           INT 3 
000046CD CC                                           INT 3 
000046CE CC                                           INT 3 
000046CF CC                                           INT 3 
000046D0 CC                                           INT 3 
000046D1 CC                                           INT 3 
000046D2 CC                                           INT 3 
000046D3 CC                                           INT 3 
000046D4 CC                                           INT 3 
000046D5 CC                                           INT 3 
000046D6 CC                                           INT 3 
000046D7 CC                                           INT 3 
000046D8 CC                                           INT 3 
000046D9 CC                                           INT 3 
000046DA CC                                           INT 3 
000046DB CC                                           INT 3 
000046DC CC                                           INT 3 
000046DD CC                                           INT 3 
000046DE CC                                           INT 3 
000046DF CC                                           INT 3 
000046E0 CC                                           INT 3 
000046E1 CC                                           INT 3 
000046E2 CC                                           INT 3 
000046E3 CC                                           INT 3 
000046E4 CC                                           INT 3 
000046E5 CC                                           INT 3 
000046E6 CC                                           INT 3 
000046E7 CC                                           INT 3 
000046E8 CC                                           INT 3 
000046E9 CC                                           INT 3 
000046EA CC                                           INT 3 
000046EB CC                                           INT 3 
000046EC CC                                           INT 3 
000046ED CC                                           INT 3 
000046EE CC                                           INT 3 
000046EF CC                                           INT 3 
000046F0 CC                                           INT 3 
000046F1 CC                                           INT 3 
000046F2 CC                                           INT 3 
000046F3 CC                                           INT 3 
000046F4 CC                                           INT 3 
000046F5 CC                                           INT 3 
000046F6 CC                                           INT 3 
000046F7 CC                                           INT 3 
000046F8 CC                                           INT 3 
000046F9 CC                                           INT 3 
000046FA CC                                           INT 3 
000046FB CC                                           INT 3 
000046FC CC                                           INT 3 
000046FD CC                                           INT 3 
000046FE CC                                           INT 3 
000046FF CC                                           INT 3 
00004700 CC                                           INT 3 
00004701 CC                                           INT 3 
00004702 CC                                           INT 3 
00004703 CC                                           INT 3 
00004704 CC                                           INT 3 
00004705 CC                                           INT 3 
00004706 CC                                           INT 3 
00004707 CC                                           INT 3 
00004708 CC                                           INT 3 
00004709 CC                                           INT 3 
0000470A CC                                           INT 3 
0000470B CC                                           INT 3 
0000470C CC                                           INT 3 
0000470D CC                                           INT 3 
0000470E CC                                           INT 3 
0000470F CC                                           INT 3 
00004710 CC                                           INT 3 
00004711 CC                                           INT 3 
00004712 CC                                           INT 3 
00004713 CC                                           INT 3 
00004714 CC                                           INT 3 
00004715 CC                                           INT 3 
00004716 CC                                           INT 3 
00004717 CC                                           INT 3 
00004718 CC                                           INT 3 
00004719 CC                                           INT 3 
0000471A CC                                           INT 3 
0000471B CC                                           INT 3 
0000471C CC                                           INT 3 
0000471D CC                                           INT 3 
0000471E CC                                           INT 3 
0000471F CC                                           INT 3 
00004720 CC                                           INT 3 
00004721 CC                                           INT 3 
00004722 CC                                           INT 3 
00004723 CC                                           INT 3 
00004724 CC                                           INT 3 
00004725 CC                                           INT 3 
00004726 CC                                           INT 3 
00004727 CC                                           INT 3 
00004728 CC                                           INT 3 
00004729 CC                                           INT 3 
0000472A CC                                           INT 3 
0000472B CC                                           INT 3 
0000472C CC                                           INT 3 
0000472D CC                                           INT 3 
0000472E CC                                           INT 3 
0000472F CC                                           INT 3 
00004730 CC                                           INT 3 
00004731 CC                                           INT 3 
00004732 CC                                           INT 3 
00004733 CC                                           INT 3 
00004734 CC                                           INT 3 
00004735 CC                                           INT 3 
00004736 CC                                           INT 3 
00004737 CC                                           INT 3 
00004738 CC                                           INT 3 
00004739 CC                                           INT 3 
0000473A CC                                           INT 3 
0000473B CC                                           INT 3 
0000473C CC                                           INT 3 
0000473D CC                                           INT 3 
0000473E CC                                           INT 3 
0000473F CC                                           INT 3 
00004740 CC                                           INT 3 
00004741 CC                                           INT 3 
00004742 CC                                           INT 3 
00004743 CC                                           INT 3 
00004744 CC                                           INT 3 
00004745 CC                                           INT 3 
00004746 CC                                           INT 3 
00004747 CC                                           INT 3 
00004748 CC                                           INT 3 
00004749 CC                                           INT 3 
0000474A CC                                           INT 3 
0000474B CC                                           INT 3 
0000474C CC                                           INT 3 
0000474D CC                                           INT 3 
0000474E CC                                           INT 3 
0000474F CC                                           INT 3 
00004750 CC                                           INT 3 
00004751 CC                                           INT 3 
00004752 CC                                           INT 3 
00004753 CC                                           INT 3 
00004754 CC                                           INT 3 
00004755 CC                                           INT 3 
00004756 CC                                           INT 3 
00004757 CC                                           INT 3 
00004758 CC                                           INT 3 
00004759 CC                                           INT 3 
0000475A CC                                           INT 3 
0000475B CC                                           INT 3 
0000475C CC                                           INT 3 
0000475D CC                                           INT 3 
0000475E CC                                           INT 3 
0000475F CC                                           INT 3 
00004760 CC                                           INT 3 
00004761 CC                                           INT 3 
00004762 CC                                           INT 3 
00004763 CC                                           INT 3 
00004764 CC                                           INT 3 
00004765 CC                                           INT 3 
00004766 CC                                           INT 3 
00004767 CC                                           INT 3 
00004768 CC                                           INT 3 
00004769 CC                                           INT 3 
0000476A CC                                           INT 3 
0000476B CC                                           INT 3 
0000476C CC                                           INT 3 
0000476D CC                                           INT 3 
0000476E CC                                           INT 3 
0000476F CC                                           INT 3 
00004770 CC                                           INT 3 
00004771 CC                                           INT 3 
00004772 CC                                           INT 3 
00004773 CC                                           INT 3 
00004774 CC                                           INT 3 
00004775 CC                                           INT 3 
00004776 CC                                           INT 3 
00004777 CC                                           INT 3 
00004778 CC                                           INT 3 
00004779 CC                                           INT 3 
0000477A CC                                           INT 3 
0000477B CC                                           INT 3 
0000477C CC                                           INT 3 
0000477D CC                                           INT 3 
0000477E CC                                           INT 3 
0000477F CC                                           INT 3 
00004780 CC                                           INT 3 
00004781 CC                                           INT 3 
00004782 CC                                           INT 3 
00004783 CC                                           INT 3 
00004784 CC                                           INT 3 
00004785 CC                                           INT 3 
00004786 CC                                           INT 3 
00004787 CC                                           INT 3 
00004788 CC                                           INT 3 
00004789 CC                                           INT 3 
0000478A CC                                           INT 3 
0000478B CC                                           INT 3 
0000478C CC                                           INT 3 
0000478D CC                                           INT 3 
0000478E CC                                           INT 3 
0000478F CC                                           INT 3 
00004790 CC                                           INT 3 
00004791 CC                                           INT 3 
00004792 CC                                           INT 3 
00004793 CC                                           INT 3 
00004794 CC                                           INT 3 
00004795 CC                                           INT 3 
00004796 CC                                           INT 3 
00004797 CC                                           INT 3 
00004798 CC                                           INT 3 
00004799 CC                                           INT 3 
0000479A CC                                           INT 3 
0000479B CC                                           INT 3 
0000479C CC                                           INT 3 
0000479D CC                                           INT 3 
0000479E CC                                           INT 3 
0000479F CC                                           INT 3 
000047A0 CC                                           INT 3 
000047A1 CC                                           INT 3 
000047A2 CC                                           INT 3 
000047A3 CC                                           INT 3 
000047A4 CC                                           INT 3 
000047A5 CC                                           INT 3 
000047A6 CC                                           INT 3 
000047A7 CC                                           INT 3 
000047A8 CC                                           INT 3 
000047A9 CC                                           INT 3 
000047AA CC                                           INT 3 
000047AB CC                                           INT 3 
000047AC CC                                           INT 3 
000047AD CC                                           INT 3 
000047AE CC                                           INT 3 
000047AF CC                                           INT 3 
000047B0 CC                                           INT 3 
000047B1 CC                                           INT 3 
000047B2 CC                                           INT 3 
000047B3 CC                                           INT 3 
000047B4 CC                                           INT 3 
000047B5 CC                                           INT 3 
000047B6 CC                                           INT 3 
000047B7 CC                                           INT 3 
000047B8 CC                                           INT 3 
000047B9 CC                                           INT 3 
000047BA CC                                           INT 3 
000047BB CC                                           INT 3 
000047BC CC                                           INT 3 
000047BD CC                                           INT 3 
000047BE CC                                           INT 3 
000047BF CC                                           INT 3 
000047C0 CC                                           INT 3 
000047C1 CC                                           INT 3 
000047C2 CC                                           INT 3 
000047C3 CC                                           INT 3 
000047C4 CC                                           INT 3 
000047C5 CC                                           INT 3 
000047C6 CC                                           INT 3 
000047C7 CC                                           INT 3 
000047C8 CC                                           INT 3 
000047C9 CC                                           INT 3 
000047CA CC                                           INT 3 
000047CB CC                                           INT 3 
000047CC CC                                           INT 3 
000047CD CC                                           INT 3 
000047CE CC                                           INT 3 
000047CF CC                                           INT 3 
000047D0 CC                                           INT 3 
000047D1 CC                                           INT 3 
000047D2 CC                                           INT 3 
000047D3 CC                                           INT 3 
000047D4 CC                                           INT 3 
000047D5 CC                                           INT 3 
000047D6 CC                                           INT 3 
000047D7 CC                                           INT 3 
000047D8 CC                                           INT 3 
000047D9 CC                                           INT 3 
000047DA CC                                           INT 3 
000047DB CC                                           INT 3 
000047DC CC                                           INT 3 
000047DD CC                                           INT 3 
000047DE CC                                           INT 3 
000047DF CC                                           INT 3 
000047E0 CC                                           INT 3 
000047E1 CC                                           INT 3 
000047E2 CC                                           INT 3 
000047E3 CC                                           INT 3 
000047E4 CC                                           INT 3 
000047E5 CC                                           INT 3 
000047E6 CC                                           INT 3 
000047E7 CC                                           INT 3 
000047E8 CC                                           INT 3 
000047E9 CC                                           INT 3 
000047EA CC                                           INT 3 
000047EB CC                                           INT 3 
000047EC CC                                           INT 3 
000047ED CC                                           INT 3 
000047EE CC                                           INT 3 
000047EF CC                                           INT 3 
000047F0 CC                                           INT 3 
000047F1 CC                                           INT 3 
000047F2 CC                                           INT 3 
000047F3 CC                                           INT 3 
000047F4 CC                                           INT 3 
000047F5 CC                                           INT 3 
000047F6 CC                                           INT 3 
000047F7 CC                                           INT 3 
000047F8 CC                                           INT 3 
000047F9 CC                                           INT 3 
000047FA CC                                           INT 3 
000047FB CC                                           INT 3 
000047FC CC                                           INT 3 
000047FD CC                                           INT 3 
000047FE CC                                           INT 3 
000047FF CC                                           INT 3 
00004800 CC                                           INT 3 
00004801 CC                                           INT 3 
00004802 CC                                           INT 3 
00004803 CC                                           INT 3 
00004804 CC                                           INT 3 
00004805 CC                                           INT 3 
00004806 CC                                           INT 3 
00004807 CC                                           INT 3 
00004808 CC                                           INT 3 
00004809 CC                                           INT 3 
0000480A CC                                           INT 3 
0000480B CC                                           INT 3 
0000480C CC                                           INT 3 
0000480D CC                                           INT 3 
0000480E CC                                           INT 3 
0000480F CC                                           INT 3 
00004810 CC                                           INT 3 
00004811 CC                                           INT 3 
00004812 CC                                           INT 3 
00004813 CC                                           INT 3 
00004814 CC                                           INT 3 
00004815 CC                                           INT 3 
00004816 CC                                           INT 3 
00004817 CC                                           INT 3 
00004818 CC                                           INT 3 
00004819 CC                                           INT 3 
0000481A CC                                           INT 3 
0000481B CC                                           INT 3 
0000481C CC                                           INT 3 
0000481D CC                                           INT 3 
0000481E CC                                           INT 3 
0000481F CC                                           INT 3 
00004820 CC                                           INT 3 
00004821 CC                                           INT 3 
00004822 CC                                           INT 3 
00004823 CC                                           INT 3 
00004824 CC                                           INT 3 
00004825 CC                                           INT 3 
00004826 CC                                           INT 3 
00004827 CC                                           INT 3 
00004828 CC                                           INT 3 
00004829 CC                                           INT 3 
0000482A CC                                           INT 3 
0000482B CC                                           INT 3 
0000482C CC                                           INT 3 
0000482D CC                                           INT 3 
0000482E CC                                           INT 3 
0000482F CC                                           INT 3 
00004830 CC                                           INT 3 
00004831 CC                                           INT 3 
00004832 CC                                           INT 3 
00004833 CC                                           INT 3 
00004834 CC                                           INT 3 
00004835 CC                                           INT 3 
00004836 CC                                           INT 3 
00004837 CC                                           INT 3 
00004838 CC                                           INT 3 
00004839 CC                                           INT 3 
0000483A CC                                           INT 3 
0000483B CC                                           INT 3 
0000483C CC                                           INT 3 
0000483D CC                                           INT 3 
0000483E CC                                           INT 3 
0000483F CC                                           INT 3 
00004840 CC                                           INT 3 
00004841 CC                                           INT 3 
00004842 CC                                           INT 3 
00004843 CC                                           INT 3 
00004844 CC                                           INT 3 
00004845 CC                                           INT 3 
00004846 CC                                           INT 3 
00004847 CC                                           INT 3 
00004848 CC                                           INT 3 
00004849 CC                                           INT 3 
0000484A CC                                           INT 3 
0000484B CC                                           INT 3 
0000484C CC                                           INT 3 
0000484D CC                                           INT 3 
0000484E CC                                           INT 3 
0000484F CC                                           INT 3 
00004850 CC                                           INT 3 
00004851 CC                                           INT 3 
00004852 CC                                           INT 3 
00004853 CC                                           INT 3 
00004854 CC                                           INT 3 
00004855 CC                                           INT 3 
00004856 CC                                           INT 3 
00004857 CC                                           INT 3 
00004858 CC                                           INT 3 
00004859 CC                                           INT 3 
0000485A CC                                           INT 3 
0000485B CC                                           INT 3 
0000485C CC                                           INT 3 
0000485D CC                                           INT 3 
0000485E CC                                           INT 3 
0000485F CC                                           INT 3 
00004860 CC                                           INT 3 
00004861 CC                                           INT 3 
00004862 CC                                           INT 3 
00004863 CC                                           INT 3 
00004864 CC                                           INT 3 
00004865 CC                                           INT 3 
00004866 CC                                           INT 3 
00004867 CC                                           INT 3 
00004868 CC                                           INT 3 
00004869 CC                                           INT 3 
0000486A CC                                           INT 3 
0000486B CC                                           INT 3 
0000486C CC                                           INT 3 
0000486D CC                                           INT 3 
0000486E CC                                           INT 3 
0000486F CC                                           INT 3 
00004870 CC                                           INT 3 
00004871 CC                                           INT 3 
00004872 CC                                           INT 3 
00004873 CC                                           INT 3 
00004874 CC                                           INT 3 
00004875 CC                                           INT 3 
00004876 CC                                           INT 3 
00004877 CC                                           INT 3 
00004878 CC                                           INT 3 
00004879 CC                                           INT 3 
0000487A CC                                           INT 3 
0000487B CC                                           INT 3 
0000487C CC                                           INT 3 
0000487D CC                                           INT 3 
0000487E CC                                           INT 3 
0000487F CC                                           INT 3 
00004880 CC                                           INT 3 
00004881 CC                                           INT 3 
00004882 CC                                           INT 3 
00004883 CC                                           INT 3 
00004884 CC                                           INT 3 
00004885 CC                                           INT 3 
00004886 CC                                           INT 3 
00004887 CC                                           INT 3 
00004888 CC                                           INT 3 
00004889 CC                                           INT 3 
0000488A CC                                           INT 3 
0000488B CC                                           INT 3 
0000488C CC                                           INT 3 
0000488D CC                                           INT 3 
0000488E CC                                           INT 3 
0000488F CC                                           INT 3 
00004890 CC                                           INT 3 
00004891 CC                                           INT 3 
00004892 CC                                           INT 3 
00004893 CC                                           INT 3 
00004894 CC                                           INT 3 
00004895 CC                                           INT 3 
00004896 CC                                           INT 3 
00004897 CC                                           INT 3 
00004898 CC                                           INT 3 
00004899 CC                                           INT 3 
0000489A CC                                           INT 3 
0000489B CC                                           INT 3 
0000489C CC                                           INT 3 
0000489D CC                                           INT 3 
0000489E CC                                           INT 3 
0000489F CC                                           INT 3 
000048A0 CC                                           INT 3 
000048A1 CC                                           INT 3 
000048A2 CC                                           INT 3 
000048A3 CC                                           INT 3 
000048A4 CC                                           INT 3 
000048A5 CC                                           INT 3 
000048A6 CC                                           INT 3 
000048A7 CC                                           INT 3 
000048A8 CC                                           INT 3 
000048A9 CC                                           INT 3 
000048AA CC                                           INT 3 
000048AB CC                                           INT 3 
000048AC CC                                           INT 3 
000048AD CC                                           INT 3 
000048AE CC                                           INT 3 
000048AF CC                                           INT 3 
000048B0 CC                                           INT 3 
000048B1 CC                                           INT 3 
000048B2 CC                                           INT 3 
000048B3 CC                                           INT 3 
000048B4 CC                                           INT 3 
000048B5 CC                                           INT 3 
000048B6 CC                                           INT 3 
000048B7 CC                                           INT 3 
000048B8 CC                                           INT 3 
000048B9 CC                                           INT 3 
000048BA CC                                           INT 3 
000048BB CC                                           INT 3 
000048BC CC                                           INT 3 
000048BD CC                                           INT 3 
000048BE CC                                           INT 3 
000048BF CC                                           INT 3 
000048C0 CC                                           INT 3 
000048C1 CC                                           INT 3 
000048C2 CC                                           INT 3 
000048C3 CC                                           INT 3 
000048C4 CC                                           INT 3 
000048C5 CC                                           INT 3 
000048C6 CC                                           INT 3 
000048C7 CC                                           INT 3 
000048C8 CC                                           INT 3 
000048C9 CC                                           INT 3 
000048CA CC                                           INT 3 
000048CB CC                                           INT 3 
000048CC CC                                           INT 3 
000048CD CC                                           INT 3 
000048CE CC                                           INT 3 
000048CF CC                                           INT 3 
000048D0 CC                                           INT 3 
000048D1 CC                                           INT 3 
000048D2 CC                                           INT 3 
000048D3 CC                                           INT 3 
000048D4 CC                                           INT 3 
000048D5 CC                                           INT 3 
000048D6 CC                                           INT 3 
000048D7 CC                                           INT 3 
000048D8 CC                                           INT 3 
000048D9 CC                                           INT 3 
000048DA CC                                           INT 3 
000048DB CC                                           INT 3 
000048DC CC                                           INT 3 
000048DD CC                                           INT 3 
000048DE CC                                           INT 3 
000048DF CC                                           INT 3 
000048E0 CC                                           INT 3 
000048E1 CC                                           INT 3 
000048E2 CC                                           INT 3 
000048E3 CC                                           INT 3 
000048E4 CC                                           INT 3 
000048E5 CC                                           INT 3 
000048E6 CC                                           INT 3 
000048E7 CC                                           INT 3 
000048E8 CC                                           INT 3 
000048E9 CC                                           INT 3 
000048EA CC                                           INT 3 
000048EB CC                                           INT 3 
000048EC CC                                           INT 3 
000048ED CC                                           INT 3 
000048EE CC                                           INT 3 
000048EF CC                                           INT 3 
000048F0 CC                                           INT 3 
000048F1 CC                                           INT 3 
000048F2 CC                                           INT 3 
000048F3 CC                                           INT 3 
000048F4 CC                                           INT 3 
000048F5 CC                                           INT 3 
000048F6 CC                                           INT 3 
000048F7 CC                                           INT 3 
000048F8 CC                                           INT 3 
000048F9 CC                                           INT 3 
000048FA CC                                           INT 3 
000048FB CC                                           INT 3 
000048FC CC                                           INT 3 
000048FD CC                                           INT 3 
000048FE CC                                           INT 3 
000048FF CC                                           INT 3 
00004900 CC                                           INT 3 
00004901 CC                                           INT 3 
00004902 CC                                           INT 3 
00004903 CC                                           INT 3 
00004904 CC                                           INT 3 
00004905 CC                                           INT 3 
00004906 CC                                           INT 3 
00004907 CC                                           INT 3 
00004908 CC                                           INT 3 
00004909 CC                                           INT 3 
0000490A CC                                           INT 3 
0000490B CC                                           INT 3 
0000490C CC                                           INT 3 
0000490D CC                                           INT 3 
0000490E CC                                           INT 3 
0000490F CC                                           INT 3 
00004910 CC                                           INT 3 
00004911 CC                                           INT 3 
00004912 CC                                           INT 3 
00004913 CC                                           INT 3 
00004914 CC                                           INT 3 
00004915 CC                                           INT 3 
00004916 CC                                           INT 3 
00004917 CC                                           INT 3 
00004918 CC                                           INT 3 
00004919 CC                                           INT 3 
0000491A CC                                           INT 3 
0000491B CC                                           INT 3 
0000491C CC                                           INT 3 
0000491D CC                                           INT 3 
0000491E CC                                           INT 3 
0000491F CC                                           INT 3 
00004920 CC                                           INT 3 
00004921 CC                                           INT 3 
00004922 CC                                           INT 3 
00004923 CC                                           INT 3 
00004924 CC                                           INT 3 
00004925 CC                                           INT 3 
00004926 CC                                           INT 3 
00004927 CC                                           INT 3 
00004928 CC                                           INT 3 
00004929 CC                                           INT 3 
0000492A CC                                           INT 3 
0000492B CC                                           INT 3 
0000492C CC                                           INT 3 
0000492D CC                                           INT 3 
0000492E CC                                           INT 3 
0000492F CC                                           INT 3 
00004930 CC                                           INT 3 
00004931 CC                                           INT 3 
00004932 CC                                           INT 3 
00004933 CC                                           INT 3 
00004934 CC                                           INT 3 
00004935 CC                                           INT 3 
00004936 CC                                           INT 3 
00004937 CC                                           INT 3 
00004938 CC                                           INT 3 
00004939 CC                                           INT 3 
0000493A CC                                           INT 3 
0000493B CC                                           INT 3 
0000493C CC                                           INT 3 
0000493D CC                                           INT 3 
0000493E CC                                           INT 3 
0000493F CC                                           INT 3 
00004940 CC                                           INT 3 
00004941 CC                                           INT 3 
00004942 CC                                           INT 3 
00004943 CC                                           INT 3 
00004944 CC                                           INT 3 
00004945 CC                                           INT 3 
00004946 CC                                           INT 3 
00004947 CC                                           INT 3 
00004948 CC                                           INT 3 
00004949 CC                                           INT 3 
0000494A CC                                           INT 3 
0000494B CC                                           INT 3 
0000494C CC                                           INT 3 
0000494D CC                                           INT 3 
0000494E CC                                           INT 3 
0000494F CC                                           INT 3 
00004950 CC                                           INT 3 
00004951 CC                                           INT 3 
00004952 CC                                           INT 3 
00004953 CC                                           INT 3 
00004954 CC                                           INT 3 
00004955 CC                                           INT 3 
00004956 CC                                           INT 3 
00004957 CC                                           INT 3 
00004958 CC                                           INT 3 
00004959 CC                                           INT 3 
0000495A CC                                           INT 3 
0000495B CC                                           INT 3 
0000495C CC                                           INT 3 
0000495D CC                                           INT 3 
0000495E CC                                           INT 3 
0000495F CC                                           INT 3 
00004960 CC                                           INT 3 
00004961 CC                                           INT 3 
00004962 CC                                           INT 3 
00004963 CC                                           INT 3 
00004964 CC                                           INT 3 
00004965 CC                                           INT 3 
00004966 CC                                           INT 3 
00004967 CC                                           INT 3 
00004968 CC                                           INT 3 
00004969 CC                                           INT 3 
0000496A CC                                           INT 3 
0000496B CC                                           INT 3 
0000496C CC                                           INT 3 
0000496D CC                                           INT 3 
0000496E CC                                           INT 3 
0000496F CC                                           INT 3 
00004970 CC                                           INT 3 
00004971 CC                                           INT 3 
00004972 CC                                           INT 3 
00004973 CC                                           INT 3 
00004974 CC                                           INT 3 
00004975 CC                                           INT 3 
00004976 CC                                           INT 3 
00004977 CC                                           INT 3 
00004978 CC                                           INT 3 
00004979 CC                                           INT 3 
0000497A CC                                           INT 3 
0000497B CC                                           INT 3 
0000497C CC                                           INT 3 
0000497D CC                                           INT 3 
0000497E CC                                           INT 3 
0000497F CC                                           INT 3 
00004980 CC                                           INT 3 
00004981 CC                                           INT 3 
00004982 CC                                           INT 3 
00004983 CC                                           INT 3 
00004984 CC                                           INT 3 
00004985 CC                                           INT 3 
00004986 CC                                           INT 3 
00004987 CC                                           INT 3 
00004988 CC                                           INT 3 
00004989 CC                                           INT 3 
0000498A CC                                           INT 3 
0000498B CC                                           INT 3 
0000498C CC                                           INT 3 
0000498D CC                                           INT 3 
0000498E CC                                           INT 3 
0000498F CC                                           INT 3 
00004990 CC                                           INT 3 
00004991 CC                                           INT 3 
00004992 CC                                           INT 3 
00004993 CC                                           INT 3 
00004994 CC                                           INT 3 
00004995 CC                                           INT 3 
00004996 CC                                           INT 3 
00004997 CC                                           INT 3 
00004998 CC                                           INT 3 
00004999 CC                                           INT 3 
0000499A CC                                           INT 3 
0000499B CC                                           INT 3 
0000499C CC                                           INT 3 
0000499D CC                                           INT 3 
0000499E CC                                           INT 3 
0000499F CC                                           INT 3 
000049A0 CC                                           INT 3 
000049A1 CC                                           INT 3 
000049A2 CC                                           INT 3 
000049A3 CC                                           INT 3 
000049A4 CC                                           INT 3 
000049A5 CC                                           INT 3 
000049A6 CC                                           INT 3 
000049A7 CC                                           INT 3 
000049A8 CC                                           INT 3 
000049A9 CC                                           INT 3 
000049AA CC                                           INT 3 
000049AB CC                                           INT 3 
000049AC CC                                           INT 3 
000049AD CC                                           INT 3 
000049AE CC                                           INT 3 
000049AF CC                                           INT 3 
000049B0 CC                                           INT 3 
000049B1 CC                                           INT 3 
000049B2 CC                                           INT 3 
000049B3 CC                                           INT 3 
000049B4 CC                                           INT 3 
000049B5 CC                                           INT 3 
000049B6 CC                                           INT 3 
000049B7 CC                                           INT 3 
000049B8 CC                                           INT 3 
000049B9 CC                                           INT 3 
000049BA CC                                           INT 3 
000049BB CC                                           INT 3 
000049BC CC                                           INT 3 
000049BD CC                                           INT 3 
000049BE CC                                           INT 3 
000049BF CC                                           INT 3 
000049C0 CC                                           INT 3 
000049C1 CC                                           INT 3 
000049C2 CC                                           INT 3 
000049C3 CC                                           INT 3 
000049C4 CC                                           INT 3 
000049C5 CC                                           INT 3 
000049C6 CC                                           INT 3 
000049C7 CC                                           INT 3 
000049C8 CC                                           INT 3 
000049C9 CC                                           INT 3 
000049CA CC                                           INT 3 
000049CB CC                                           INT 3 
000049CC CC                                           INT 3 
000049CD CC                                           INT 3 
000049CE CC                                           INT 3 
000049CF CC                                           INT 3 
000049D0 CC                                           INT 3 
000049D1 CC                                           INT 3 
000049D2 CC                                           INT 3 
000049D3 CC                                           INT 3 
000049D4 CC                                           INT 3 
000049D5 CC                                           INT 3 
000049D6 CC                                           INT 3 
000049D7 CC                                           INT 3 
000049D8 CC                                           INT 3 
000049D9 CC                                           INT 3 
000049DA CC                                           INT 3 
000049DB CC                                           INT 3 
000049DC CC                                           INT 3 
000049DD CC                                           INT 3 
000049DE CC                                           INT 3 
000049DF CC                                           INT 3 
000049E0 CC                                           INT 3 
000049E1 CC                                           INT 3 
000049E2 CC                                           INT 3 
000049E3 CC                                           INT 3 
000049E4 CC                                           INT 3 
000049E5 CC                                           INT 3 
000049E6 CC                                           INT 3 
000049E7 CC                                           INT 3 
000049E8 CC                                           INT 3 
000049E9 CC                                           INT 3 
000049EA CC                                           INT 3 
000049EB CC                                           INT 3 
000049EC CC                                           INT 3 
000049ED CC                                           INT 3 
000049EE CC                                           INT 3 
000049EF CC                                           INT 3 
000049F0 CC                                           INT 3 
000049F1 CC                                           INT 3 
000049F2 CC                                           INT 3 
000049F3 CC                                           INT 3 
000049F4 CC                                           INT 3 
000049F5 CC                                           INT 3 
000049F6 CC                                           INT 3 
000049F7 CC                                           INT 3 
000049F8 CC                                           INT 3 
000049F9 CC                                           INT 3 
000049FA CC                                           INT 3 
000049FB CC                                           INT 3 
000049FC CC                                           INT 3 
000049FD CC                                           INT 3 
000049FE CC                                           INT 3 
000049FF CC                                           INT 3 
00004A00 CC                                           INT 3 
00004A01 CC                                           INT 3 
00004A02 CC                                           INT 3 
00004A03 CC                                           INT 3 
00004A04 CC                                           INT 3 
00004A05 CC                                           INT 3 
00004A06 CC                                           INT 3 
00004A07 CC                                           INT 3 
00004A08 CC                                           INT 3 
00004A09 CC                                           INT 3 
00004A0A CC                                           INT 3 
00004A0B CC                                           INT 3 
00004A0C CC                                           INT 3 
00004A0D CC                                           INT 3 
00004A0E CC                                           INT 3 
00004A0F CC                                           INT 3 
00004A10 CC                                           INT 3 
00004A11 CC                                           INT 3 
00004A12 CC                                           INT 3 
00004A13 CC                                           INT 3 
00004A14 CC                                           INT 3 
00004A15 CC                                           INT 3 
00004A16 CC                                           INT 3 
00004A17 CC                                           INT 3 
00004A18 CC                                           INT 3 
00004A19 CC                                           INT 3 
00004A1A CC                                           INT 3 
00004A1B CC                                           INT 3 
00004A1C CC                                           INT 3 
00004A1D CC                                           INT 3 
00004A1E CC                                           INT 3 
00004A1F CC                                           INT 3 
00004A20 CC                                           INT 3 
00004A21 CC                                           INT 3 
00004A22 CC                                           INT 3 
00004A23 CC                                           INT 3 
00004A24 CC                                           INT 3 
00004A25 CC                                           INT 3 
00004A26 CC                                           INT 3 
00004A27 CC                                           INT 3 
00004A28 CC                                           INT 3 
00004A29 CC                                           INT 3 
00004A2A CC                                           INT 3 
00004A2B CC                                           INT 3 
00004A2C CC                                           INT 3 
00004A2D CC                                           INT 3 
00004A2E CC                                           INT 3 
00004A2F CC                                           INT 3 
00004A30 CC                                           INT 3 
00004A31 CC                                           INT 3 
00004A32 CC                                           INT 3 
00004A33 CC                                           INT 3 
00004A34 CC                                           INT 3 
00004A35 CC                                           INT 3 
00004A36 CC                                           INT 3 
00004A37 CC                                           INT 3 
00004A38 CC                                           INT 3 
00004A39 CC                                           INT 3 
00004A3A CC                                           INT 3 
00004A3B CC                                           INT 3 
00004A3C CC                                           INT 3 
00004A3D CC                                           INT 3 
00004A3E CC                                           INT 3 
00004A3F CC                                           INT 3 
00004A40 CC                                           INT 3 
00004A41 CC                                           INT 3 
00004A42 CC                                           INT 3 
00004A43 CC                                           INT 3 
00004A44 CC                                           INT 3 
00004A45 CC                                           INT 3 
00004A46 CC                                           INT 3 
00004A47 CC                                           INT 3 
00004A48 CC                                           INT 3 
00004A49 CC                                           INT 3 
00004A4A CC                                           INT 3 
00004A4B CC                                           INT 3 
00004A4C CC                                           INT 3 
00004A4D CC                                           INT 3 
00004A4E CC                                           INT 3 
00004A4F CC                                           INT 3 
00004A50 CC                                           INT 3 
00004A51 CC                                           INT 3 
00004A52 CC                                           INT 3 
00004A53 CC                                           INT 3 
00004A54 CC                                           INT 3 
00004A55 CC                                           INT 3 
00004A56 CC                                           INT 3 
00004A57 CC                                           INT 3 
00004A58 CC                                           INT 3 
00004A59 CC                                           INT 3 
00004A5A CC                                           INT 3 
00004A5B CC                                           INT 3 
00004A5C CC                                           INT 3 
00004A5D CC                                           INT 3 
00004A5E CC                                           INT 3 
00004A5F CC                                           INT 3 
00004A60 CC                                           INT 3 
00004A61 CC                                           INT 3 
00004A62 CC                                           INT 3 
00004A63 CC                                           INT 3 
00004A64 CC                                           INT 3 
00004A65 CC                                           INT 3 
00004A66 CC                                           INT 3 
00004A67 CC                                           INT 3 
00004A68 CC                                           INT 3 
00004A69 CC                                           INT 3 
00004A6A CC                                           INT 3 
00004A6B CC                                           INT 3 
00004A6C CC                                           INT 3 
00004A6D CC                                           INT 3 
00004A6E CC                                           INT 3 
00004A6F CC                                           INT 3 
00004A70 CC                                           INT 3 
00004A71 CC                                           INT 3 
00004A72 CC                                           INT 3 
00004A73 CC                                           INT 3 
00004A74 CC                                           INT 3 
00004A75 CC                                           INT 3 
00004A76 CC                                           INT 3 
00004A77 CC                                           INT 3 
00004A78 CC                                           INT 3 
00004A79 CC                                           INT 3 
00004A7A CC                                           INT 3 
00004A7B CC                                           INT 3 
00004A7C CC                                           INT 3 
00004A7D CC                                           INT 3 
00004A7E CC                                           INT 3 
00004A7F CC                                           INT 3 
00004A80 CC                                           INT 3 
00004A81 CC                                           INT 3 
00004A82 CC                                           INT 3 
00004A83 CC                                           INT 3 
00004A84 CC                                           INT 3 
00004A85 CC                                           INT 3 
00004A86 CC                                           INT 3 
00004A87 CC                                           INT 3 
00004A88 CC                                           INT 3 
00004A89 CC                                           INT 3 
00004A8A CC                                           INT 3 
00004A8B CC                                           INT 3 
00004A8C CC                                           INT 3 
00004A8D CC                                           INT 3 
00004A8E CC                                           INT 3 
00004A8F CC                                           INT 3 
00004A90 CC                                           INT 3 
00004A91 CC                                           INT 3 
00004A92 CC                                           INT 3 
00004A93 CC                                           INT 3 
00004A94 CC                                           INT 3 
00004A95 CC                                           INT 3 
00004A96 CC                                           INT 3 
00004A97 CC                                           INT 3 
00004A98 CC                                           INT 3 
00004A99 CC                                           INT 3 
00004A9A CC                                           INT 3 
00004A9B CC                                           INT 3 
00004A9C CC                                           INT 3 
00004A9D CC                                           INT 3 
00004A9E CC                                           INT 3 
00004A9F CC                                           INT 3 
00004AA0 CC                                           INT 3 
00004AA1 CC                                           INT 3 
00004AA2 CC                                           INT 3 
00004AA3 CC                                           INT 3 
00004AA4 CC                                           INT 3 
00004AA5 CC                                           INT 3 
00004AA6 CC                                           INT 3 
00004AA7 CC                                           INT 3 
00004AA8 CC                                           INT 3 
00004AA9 CC                                           INT 3 
00004AAA CC                                           INT 3 
00004AAB CC                                           INT 3 
00004AAC CC                                           INT 3 
00004AAD CC                                           INT 3 
00004AAE CC                                           INT 3 
00004AAF CC                                           INT 3 
00004AB0 CC                                           INT 3 
00004AB1 CC                                           INT 3 
00004AB2 CC                                           INT 3 
00004AB3 CC                                           INT 3 
00004AB4 CC                                           INT 3 
00004AB5 CC                                           INT 3 
00004AB6 CC                                           INT 3 
00004AB7 CC                                           INT 3 
00004AB8 CC                                           INT 3 
00004AB9 CC                                           INT 3 
00004ABA CC                                           INT 3 
00004ABB CC                                           INT 3 
00004ABC CC                                           INT 3 
00004ABD CC                                           INT 3 
00004ABE CC                                           INT 3 
00004ABF CC                                           INT 3 
00004AC0 CC                                           INT 3 
00004AC1 CC                                           INT 3 
00004AC2 CC                                           INT 3 
00004AC3 CC                                           INT 3 
00004AC4 CC                                           INT 3 
00004AC5 CC                                           INT 3 
00004AC6 CC                                           INT 3 
00004AC7 CC                                           INT 3 
00004AC8 CC                                           INT 3 
00004AC9 CC                                           INT 3 
00004ACA CC                                           INT 3 
00004ACB CC                                           INT 3 
00004ACC CC                                           INT 3 
00004ACD CC                                           INT 3 
00004ACE CC                                           INT 3 
00004ACF CC                                           INT 3 
00004AD0 CC                                           INT 3 
00004AD1 CC                                           INT 3 
00004AD2 CC                                           INT 3 
00004AD3 CC                                           INT 3 
00004AD4 CC                                           INT 3 
00004AD5 CC                                           INT 3 
00004AD6 CC                                           INT 3 
00004AD7 CC                                           INT 3 
00004AD8 CC                                           INT 3 
00004AD9 CC                                           INT 3 
00004ADA CC                                           INT 3 
00004ADB CC                                           INT 3 
00004ADC CC                                           INT 3 
00004ADD CC                                           INT 3 
00004ADE CC                                           INT 3 
00004ADF CC                                           INT 3 
00004AE0 CC                                           INT 3 
00004AE1 CC                                           INT 3 
00004AE2 CC                                           INT 3 
00004AE3 CC                                           INT 3 
00004AE4 CC                                           INT 3 
00004AE5 CC                                           INT 3 
00004AE6 CC                                           INT 3 
00004AE7 CC                                           INT 3 
00004AE8 CC                                           INT 3 
00004AE9 CC                                           INT 3 
00004AEA CC                                           INT 3 
00004AEB CC                                           INT 3 
00004AEC CC                                           INT 3 
00004AED CC                                           INT 3 
00004AEE CC                                           INT 3 
00004AEF CC                                           INT 3 
00004AF0 CC                                           INT 3 
00004AF1 CC                                           INT 3 
00004AF2 CC                                           INT 3 
00004AF3 CC                                           INT 3 
00004AF4 CC                                           INT 3 
00004AF5 CC                                           INT 3 
00004AF6 CC                                           INT 3 
00004AF7 CC                                           INT 3 
00004AF8 CC                                           INT 3 
00004AF9 CC                                           INT 3 
00004AFA CC                                           INT 3 
00004AFB CC                                           INT 3 
00004AFC CC                                           INT 3 
00004AFD CC                                           INT 3 
00004AFE CC                                           INT 3 
00004AFF CC                                           INT 3 
00004B00 CC                                           INT 3 
00004B01 CC                                           INT 3 
00004B02 CC                                           INT 3 
00004B03 CC                                           INT 3 
00004B04 CC                                           INT 3 
00004B05 CC                                           INT 3 
00004B06 CC                                           INT 3 
00004B07 CC                                           INT 3 
00004B08 CC                                           INT 3 
00004B09 CC                                           INT 3 
00004B0A CC                                           INT 3 
00004B0B CC                                           INT 3 
00004B0C CC                                           INT 3 
00004B0D CC                                           INT 3 
00004B0E CC                                           INT 3 
00004B0F CC                                           INT 3 
00004B10 CC                                           INT 3 
00004B11 CC                                           INT 3 
00004B12 CC                                           INT 3 
00004B13 CC                                           INT 3 
00004B14 CC                                           INT 3 
00004B15 CC                                           INT 3 
00004B16 CC                                           INT 3 
00004B17 CC                                           INT 3 
00004B18 CC                                           INT 3 
00004B19 CC                                           INT 3 
00004B1A CC                                           INT 3 
00004B1B CC                                           INT 3 
00004B1C CC                                           INT 3 
00004B1D CC                                           INT 3 
00004B1E CC                                           INT 3 
00004B1F CC                                           INT 3 
00004B20 CC                                           INT 3 
00004B21 CC                                           INT 3 
00004B22 CC                                           INT 3 
00004B23 CC                                           INT 3 
00004B24 CC                                           INT 3 
00004B25 CC                                           INT 3 
00004B26 CC                                           INT 3 
00004B27 CC                                           INT 3 
00004B28 CC                                           INT 3 
00004B29 CC                                           INT 3 
00004B2A CC                                           INT 3 
00004B2B CC                                           INT 3 
00004B2C CC                                           INT 3 
00004B2D CC                                           INT 3 
00004B2E CC                                           INT 3 
00004B2F CC                                           INT 3 
00004B30 CC                                           INT 3 
00004B31 CC                                           INT 3 
00004B32 CC                                           INT 3 
00004B33 CC                                           INT 3 
00004B34 CC                                           INT 3 
00004B35 CC                                           INT 3 
00004B36 CC                                           INT 3 
00004B37 CC                                           INT 3 
00004B38 CC                                           INT 3 
00004B39 CC                                           INT 3 
00004B3A CC                                           INT 3 
00004B3B CC                                           INT 3 
00004B3C CC                                           INT 3 
00004B3D CC                                           INT 3 
00004B3E CC                                           INT 3 
00004B3F CC                                           INT 3 
00004B40 CC                                           INT 3 
00004B41 CC                                           INT 3 
00004B42 CC                                           INT 3 
00004B43 CC                                           INT 3 
00004B44 CC                                           INT 3 
00004B45 CC                                           INT 3 
00004B46 CC                                           INT 3 
00004B47 CC                                           INT 3 
00004B48 CC                                           INT 3 
00004B49 CC                                           INT 3 
00004B4A CC                                           INT 3 
00004B4B CC                                           INT 3 
00004B4C CC                                           INT 3 
00004B4D CC                                           INT 3 
00004B4E CC                                           INT 3 
00004B4F CC                                           INT 3 
00004B50 CC                                           INT 3 
00004B51 CC                                           INT 3 
00004B52 CC                                           INT 3 
00004B53 CC                                           INT 3 
00004B54 CC                                           INT 3 
00004B55 CC                                           INT 3 
00004B56 CC                                           INT 3 
00004B57 CC                                           INT 3 
00004B58 CC                                           INT 3 
00004B59 CC                                           INT 3 
00004B5A CC                                           INT 3 
00004B5B CC                                           INT 3 
00004B5C CC                                           INT 3 
00004B5D CC                                           INT 3 
00004B5E CC                                           INT 3 
00004B5F CC                                           INT 3 
00004B60 CC                                           INT 3 
00004B61 CC                                           INT 3 
00004B62 CC                                           INT 3 
00004B63 CC                                           INT 3 
00004B64 CC                                           INT 3 
00004B65 CC                                           INT 3 
00004B66 CC                                           INT 3 
00004B67 CC                                           INT 3 
00004B68 CC                                           INT 3 
00004B69 CC                                           INT 3 
00004B6A CC                                           INT 3 
00004B6B CC                                           INT 3 
00004B6C CC                                           INT 3 
00004B6D CC                                           INT 3 
00004B6E CC                                           INT 3 
00004B6F CC                                           INT 3 
00004B70 CC                                           INT 3 
00004B71 CC                                           INT 3 
00004B72 CC                                           INT 3 
00004B73 CC                                           INT 3 
00004B74 CC                                           INT 3 
00004B75 CC                                           INT 3 
00004B76 CC                                           INT 3 
00004B77 CC                                           INT 3 
00004B78 CC                                           INT 3 
00004B79 CC                                           INT 3 
00004B7A CC                                           INT 3 
00004B7B CC                                           INT 3 
00004B7C CC                                           INT 3 
00004B7D CC                                           INT 3 
00004B7E CC                                           INT 3 
00004B7F CC                                           INT 3 
00004B80 CC                                           INT 3 
00004B81 CC                                           INT 3 
00004B82 CC                                           INT 3 
00004B83 CC                                           INT 3 
00004B84 CC                                           INT 3 
00004B85 CC                                           INT 3 
00004B86 CC                                           INT 3 
00004B87 CC                                           INT 3 
00004B88 CC                                           INT 3 
00004B89 CC                                           INT 3 
00004B8A CC                                           INT 3 
00004B8B CC                                           INT 3 
00004B8C CC                                           INT 3 
00004B8D CC                                           INT 3 
00004B8E CC                                           INT 3 
00004B8F CC                                           INT 3 
00004B90 CC                                           INT 3 
00004B91 CC                                           INT 3 
00004B92 CC                                           INT 3 
00004B93 CC                                           INT 3 
00004B94 CC                                           INT 3 
00004B95 CC                                           INT 3 
00004B96 CC                                           INT 3 
00004B97 CC                                           INT 3 
00004B98 CC                                           INT 3 
00004B99 CC                                           INT 3 
00004B9A CC                                           INT 3 
00004B9B CC                                           INT 3 
00004B9C CC                                           INT 3 
00004B9D CC                                           INT 3 
00004B9E CC                                           INT 3 
00004B9F CC                                           INT 3 
00004BA0 CC                                           INT 3 
00004BA1 CC                                           INT 3 
00004BA2 CC                                           INT 3 
00004BA3 CC                                           INT 3 
00004BA4 CC                                           INT 3 
00004BA5 CC                                           INT 3 
00004BA6 CC                                           INT 3 
00004BA7 CC                                           INT 3 
00004BA8 CC                                           INT 3 
00004BA9 CC                                           INT 3 
00004BAA CC                                           INT 3 
00004BAB CC                                           INT 3 
00004BAC CC                                           INT 3 
00004BAD CC                                           INT 3 
00004BAE CC                                           INT 3 
00004BAF CC                                           INT 3 
00004BB0 CC                                           INT 3 
00004BB1 CC                                           INT 3 
00004BB2 CC                                           INT 3 
00004BB3 CC                                           INT 3 
00004BB4 CC                                           INT 3 
00004BB5 CC                                           INT 3 
00004BB6 CC                                           INT 3 
00004BB7 CC                                           INT 3 
00004BB8 CC                                           INT 3 
00004BB9 CC                                           INT 3 
00004BBA CC                                           INT 3 
00004BBB CC                                           INT 3 
00004BBC CC                                           INT 3 
00004BBD CC                                           INT 3 
00004BBE CC                                           INT 3 
00004BBF CC                                           INT 3 
00004BC0 CC                                           INT 3 
00004BC1 CC                                           INT 3 
00004BC2 CC                                           INT 3 
00004BC3 CC                                           INT 3 
00004BC4 CC                                           INT 3 
00004BC5 CC                                           INT 3 
00004BC6 CC                                           INT 3 
00004BC7 CC                                           INT 3 
00004BC8 CC                                           INT 3 
00004BC9 CC                                           INT 3 
00004BCA CC                                           INT 3 
00004BCB CC                                           INT 3 
00004BCC CC                                           INT 3 
00004BCD CC                                           INT 3 
00004BCE CC                                           INT 3 
00004BCF CC                                           INT 3 
00004BD0 CC                                           INT 3 
00004BD1 CC                                           INT 3 
00004BD2 CC                                           INT 3 
00004BD3 CC                                           INT 3 
00004BD4 CC                                           INT 3 
00004BD5 CC                                           INT 3 
00004BD6 CC                                           INT 3 
00004BD7 CC                                           INT 3 
00004BD8 CC                                           INT 3 
00004BD9 CC                                           INT 3 
00004BDA CC                                           INT 3 
00004BDB CC                                           INT 3 
00004BDC CC                                           INT 3 
00004BDD CC                                           INT 3 
00004BDE CC                                           INT 3 
00004BDF CC                                           INT 3 
00004BE0 CC                                           INT 3 
00004BE1 CC                                           INT 3 
00004BE2 CC                                           INT 3 
00004BE3 CC                                           INT 3 
00004BE4 CC                                           INT 3 
00004BE5 CC                                           INT 3 
00004BE6 CC                                           INT 3 
00004BE7 CC                                           INT 3 
00004BE8 CC                                           INT 3 
00004BE9 CC                                           INT 3 
00004BEA CC                                           INT 3 
00004BEB CC                                           INT 3 
00004BEC CC                                           INT 3 
00004BED CC                                           INT 3 
00004BEE CC                                           INT 3 
00004BEF CC                                           INT 3 
00004BF0 CC                                           INT 3 
00004BF1 CC                                           INT 3 
00004BF2 CC                                           INT 3 
00004BF3 CC                                           INT 3 
00004BF4 CC                                           INT 3 
00004BF5 CC                                           INT 3 
00004BF6 CC                                           INT 3 
00004BF7 CC                                           INT 3 
00004BF8 CC                                           INT 3 
00004BF9 CC                                           INT 3 
00004BFA CC                                           INT 3 
00004BFB CC                                           INT 3 
00004BFC CC                                           INT 3 
00004BFD CC                                           INT 3 
00004BFE CC                                           INT 3 
00004BFF CC                                           INT 3 
00004C00 CC                                           INT 3 
00004C01 CC                                           INT 3 
00004C02 CC                                           INT 3 
00004C03 CC                                           INT 3 
00004C04 CC                                           INT 3 
00004C05 CC                                           INT 3 
00004C06 CC                                           INT 3 
00004C07 CC                                           INT 3 
00004C08 CC                                           INT 3 
00004C09 CC                                           INT 3 
00004C0A CC                                           INT 3 
00004C0B CC                                           INT 3 
00004C0C CC                                           INT 3 
00004C0D CC                                           INT 3 
00004C0E CC                                           INT 3 
00004C0F CC                                           INT 3 
00004C10 CC                                           INT 3 
00004C11 CC                                           INT 3 
00004C12 CC                                           INT 3 
00004C13 CC                                           INT 3 
00004C14 CC                                           INT 3 
00004C15 CC                                           INT 3 
00004C16 CC                                           INT 3 
00004C17 CC                                           INT 3 
00004C18 CC                                           INT 3 
00004C19 CC                                           INT 3 
00004C1A CC                                           INT 3 
00004C1B CC                                           INT 3 
00004C1C CC                                           INT 3 
00004C1D CC                                           INT 3 
00004C1E CC                                           INT 3 
00004C1F CC                                           INT 3 
00004C20 CC                                           INT 3 
00004C21 CC                                           INT 3 
00004C22 CC                                           INT 3 
00004C23 CC                                           INT 3 
00004C24 CC                                           INT 3 
00004C25 CC                                           INT 3 
00004C26 CC                                           INT 3 
00004C27 CC                                           INT 3 
00004C28 CC                                           INT 3 
00004C29 CC                                           INT 3 
00004C2A CC                                           INT 3 
00004C2B CC                                           INT 3 
00004C2C CC                                           INT 3 
00004C2D CC                                           INT 3 
00004C2E CC                                           INT 3 
00004C2F CC                                           INT 3 
00004C30 CC                                           INT 3 
00004C31 CC                                           INT 3 
00004C32 CC                                           INT 3 
00004C33 CC                                           INT 3 
00004C34 CC                                           INT 3 
00004C35 CC                                           INT 3 
00004C36 CC                                           INT 3 
00004C37 CC                                           INT 3 
00004C38 CC                                           INT 3 
00004C39 CC                                           INT 3 
00004C3A CC                                           INT 3 
00004C3B CC                                           INT 3 
00004C3C CC                                           INT 3 
00004C3D CC                                           INT 3 
00004C3E CC                                           INT 3 
00004C3F CC                                           INT 3 
00004C40 CC                                           INT 3 
00004C41 CC                                           INT 3 
00004C42 CC                                           INT 3 
00004C43 CC                                           INT 3 
00004C44 CC                                           INT 3 
00004C45 CC                                           INT 3 
00004C46 CC                                           INT 3 
00004C47 CC                                           INT 3 
00004C48 CC                                           INT 3 
00004C49 CC                                           INT 3 
00004C4A CC                                           INT 3 
00004C4B CC                                           INT 3 
00004C4C CC                                           INT 3 
00004C4D CC                                           INT 3 
00004C4E CC                                           INT 3 
00004C4F CC                                           INT 3 
00004C50 CC                                           INT 3 
00004C51 CC                                           INT 3 
00004C52 CC                                           INT 3 
00004C53 CC                                           INT 3 
00004C54 CC                                           INT 3 
00004C55 CC                                           INT 3 
00004C56 CC                                           INT 3 
00004C57 CC                                           INT 3 
00004C58 CC                                           INT 3 
00004C59 CC                                           INT 3 
00004C5A CC                                           INT 3 
00004C5B CC                                           INT 3 
00004C5C CC                                           INT 3 
00004C5D CC                                           INT 3 
00004C5E CC                                           INT 3 
00004C5F CC                                           INT 3 
00004C60 CC                                           INT 3 
00004C61 CC                                           INT 3 
00004C62 CC                                           INT 3 
00004C63 CC                                           INT 3 
00004C64 CC                                           INT 3 
00004C65 CC                                           INT 3 
00004C66 CC                                           INT 3 
00004C67 CC                                           INT 3 
00004C68 CC                                           INT 3 
00004C69 CC                                           INT 3 
00004C6A CC                                           INT 3 
00004C6B CC                                           INT 3 
00004C6C CC                                           INT 3 
00004C6D CC                                           INT 3 
00004C6E CC                                           INT 3 
00004C6F CC                                           INT 3 
00004C70 CC                                           INT 3 
00004C71 CC                                           INT 3 
00004C72 CC                                           INT 3 
00004C73 CC                                           INT 3 
00004C74 CC                                           INT 3 
00004C75 CC                                           INT 3 
00004C76 CC                                           INT 3 
00004C77 CC                                           INT 3 
00004C78 CC                                           INT 3 
00004C79 CC                                           INT 3 
00004C7A CC                                           INT 3 
00004C7B CC                                           INT 3 
00004C7C CC                                           INT 3 
00004C7D CC                                           INT 3 
00004C7E CC                                           INT 3 
00004C7F CC                                           INT 3 
00004C80 CC                                           INT 3 
00004C81 CC                                           INT 3 
00004C82 CC                                           INT 3 
00004C83 CC                                           INT 3 
00004C84 CC                                           INT 3 
00004C85 CC                                           INT 3 
00004C86 CC                                           INT 3 
00004C87 CC                                           INT 3 
00004C88 CC                                           INT 3 
00004C89 CC                                           INT 3 
00004C8A CC                                           INT 3 
00004C8B CC                                           INT 3 
00004C8C CC                                           INT 3 
00004C8D CC                                           INT 3 
00004C8E CC                                           INT 3 
00004C8F CC                                           INT 3 
00004C90 CC                                           INT 3 
00004C91 CC                                           INT 3 
00004C92 CC                                           INT 3 
00004C93 CC                                           INT 3 
00004C94 CC                                           INT 3 
00004C95 CC                                           INT 3 
00004C96 CC                                           INT 3 
00004C97 CC                                           INT 3 
00004C98 CC                                           INT 3 
00004C99 CC                                           INT 3 
00004C9A CC                                           INT 3 
00004C9B CC                                           INT 3 
00004C9C CC                                           INT 3 
00004C9D CC                                           INT 3 
00004C9E CC                                           INT 3 
00004C9F CC                                           INT 3 
00004CA0 CC                                           INT 3 
00004CA1 CC                                           INT 3 
00004CA2 CC                                           INT 3 
00004CA3 CC                                           INT 3 
00004CA4 CC                                           INT 3 
00004CA5 CC                                           INT 3 
00004CA6 CC                                           INT 3 
00004CA7 CC                                           INT 3 
00004CA8 CC                                           INT 3 
00004CA9 CC                                           INT 3 
00004CAA CC                                           INT 3 
00004CAB CC                                           INT 3 
00004CAC CC                                           INT 3 
00004CAD CC                                           INT 3 
00004CAE CC                                           INT 3 
00004CAF CC                                           INT 3 
00004CB0 CC                                           INT 3 
00004CB1 CC                                           INT 3 
00004CB2 CC                                           INT 3 
00004CB3 CC                                           INT 3 
00004CB4 CC                                           INT 3 
00004CB5 CC                                           INT 3 
00004CB6 CC                                           INT 3 
00004CB7 CC                                           INT 3 
00004CB8 CC                                           INT 3 
00004CB9 CC                                           INT 3 
00004CBA CC                                           INT 3 
00004CBB CC                                           INT 3 
00004CBC CC                                           INT 3 
00004CBD CC                                           INT 3 
00004CBE CC                                           INT 3 
00004CBF CC                                           INT 3 
00004CC0 CC                                           INT 3 
00004CC1 CC                                           INT 3 
00004CC2 CC                                           INT 3 
00004CC3 CC                                           INT 3 
00004CC4 CC                                           INT 3 
00004CC5 CC                                           INT 3 
00004CC6 CC                                           INT 3 
00004CC7 CC                                           INT 3 
00004CC8 CC                                           INT 3 
00004CC9 CC                                           INT 3 
00004CCA CC                                           INT 3 
00004CCB CC                                           INT 3 
00004CCC CC                                           INT 3 
00004CCD CC                                           INT 3 
00004CCE CC                                           INT 3 
00004CCF CC                                           INT 3 
00004CD0 CC                                           INT 3 
00004CD1 CC                                           INT 3 
00004CD2 CC                                           INT 3 
00004CD3 CC                                           INT 3 
00004CD4 CC                                           INT 3 
00004CD5 CC                                           INT 3 
00004CD6 CC                                           INT 3 
00004CD7 CC                                           INT 3 
00004CD8 CC                                           INT 3 
00004CD9 CC                                           INT 3 
00004CDA CC                                           INT 3 
00004CDB CC                                           INT 3 
00004CDC CC                                           INT 3 
00004CDD CC                                           INT 3 
00004CDE CC                                           INT 3 
00004CDF CC                                           INT 3 
00004CE0 CC                                           INT 3 
00004CE1 CC                                           INT 3 
00004CE2 CC                                           INT 3 
00004CE3 CC                                           INT 3 
00004CE4 CC                                           INT 3 
00004CE5 CC                                           INT 3 
00004CE6 CC                                           INT 3 
00004CE7 CC                                           INT 3 
00004CE8 CC                                           INT 3 
00004CE9 CC                                           INT 3 
00004CEA CC                                           INT 3 
00004CEB CC                                           INT 3 
00004CEC CC                                           INT 3 
00004CED CC                                           INT 3 
00004CEE CC                                           INT 3 
00004CEF CC                                           INT 3 
00004CF0 CC                                           INT 3 
00004CF1 CC                                           INT 3 
00004CF2 CC                                           INT 3 
00004CF3 CC                                           INT 3 
00004CF4 CC                                           INT 3 
00004CF5 CC                                           INT 3 
00004CF6 CC                                           INT 3 
00004CF7 CC                                           INT 3 
00004CF8 CC                                           INT 3 
00004CF9 CC                                           INT 3 
00004CFA CC                                           INT 3 
00004CFB CC                                           INT 3 
00004CFC CC                                           INT 3 
00004CFD CC                                           INT 3 
00004CFE CC                                           INT 3 
00004CFF CC                                           INT 3 
00004D00 CC                                           INT 3 
00004D01 CC                                           INT 3 
00004D02 CC                                           INT 3 
00004D03 CC                                           INT 3 
00004D04 CC                                           INT 3 
00004D05 CC                                           INT 3 
00004D06 CC                                           INT 3 
00004D07 CC                                           INT 3 
00004D08 CC                                           INT 3 
00004D09 CC                                           INT 3 
00004D0A CC                                           INT 3 
00004D0B CC                                           INT 3 
00004D0C CC                                           INT 3 
00004D0D CC                                           INT 3 
00004D0E CC                                           INT 3 
00004D0F CC                                           INT 3 
00004D10 CC                                           INT 3 
00004D11 CC                                           INT 3 
00004D12 CC                                           INT 3 
00004D13 CC                                           INT 3 
00004D14 CC                                           INT 3 
00004D15 CC                                           INT 3 
00004D16 CC                                           INT 3 
00004D17 CC                                           INT 3 
00004D18 CC                                           INT 3 
00004D19 CC                                           INT 3 
00004D1A CC                                           INT 3 
00004D1B CC                                           INT 3 
00004D1C CC                                           INT 3 
00004D1D CC                                           INT 3 
00004D1E CC                                           INT 3 
00004D1F CC                                           INT 3 
00004D20 CC                                           INT 3 
00004D21 CC                                           INT 3 
00004D22 CC                                           INT 3 
00004D23 CC                                           INT 3 
00004D24 CC                                           INT 3 
00004D25 CC                                           INT 3 
00004D26 CC                                           INT 3 
00004D27 CC                                           INT 3 
00004D28 CC                                           INT 3 
00004D29 CC                                           INT 3 
00004D2A CC                                           INT 3 
00004D2B CC                                           INT 3 
00004D2C CC                                           INT 3 
00004D2D CC                                           INT 3 
00004D2E CC                                           INT 3 
00004D2F CC                                           INT 3 
00004D30 CC                                           INT 3 
00004D31 CC                                           INT 3 
00004D32 CC                                           INT 3 
00004D33 CC                                           INT 3 
00004D34 CC                                           INT 3 
00004D35 CC                                           INT 3 
00004D36 CC                                           INT 3 
00004D37 CC                                           INT 3 
00004D38 CC                                           INT 3 
00004D39 CC                                           INT 3 
00004D3A CC                                           INT 3 
00004D3B CC                                           INT 3 
00004D3C CC                                           INT 3 
00004D3D CC                                           INT 3 
00004D3E CC                                           INT 3 
00004D3F CC                                           INT 3 
00004D40 CC                                           INT 3 
00004D41 CC                                           INT 3 
00004D42 CC                                           INT 3 
00004D43 CC                                           INT 3 
00004D44 CC                                           INT 3 
00004D45 CC                                           INT 3 
00004D46 CC                                           INT 3 
00004D47 CC                                           INT 3 
00004D48 CC                                           INT 3 
00004D49 CC                                           INT 3 
00004D4A CC                                           INT 3 
00004D4B CC                                           INT 3 
00004D4C CC                                           INT 3 
00004D4D CC                                           INT 3 
00004D4E CC                                           INT 3 
00004D4F CC                                           INT 3 
00004D50 CC                                           INT 3 
00004D51 CC                                           INT 3 
00004D52 CC                                           INT 3 
00004D53 CC                                           INT 3 
00004D54 CC                                           INT 3 
00004D55 CC                                           INT 3 
00004D56 CC                                           INT 3 
00004D57 CC                                           INT 3 
00004D58 CC                                           INT 3 
00004D59 CC                                           INT 3 
00004D5A CC                                           INT 3 
00004D5B CC                                           INT 3 
00004D5C CC                                           INT 3 
00004D5D CC                                           INT 3 
00004D5E CC                                           INT 3 
00004D5F CC                                           INT 3 
00004D60 CC                                           INT 3 
00004D61 CC                                           INT 3 
00004D62 CC                                           INT 3 
00004D63 CC                                           INT 3 
00004D64 CC                                           INT 3 
00004D65 CC                                           INT 3 
00004D66 CC                                           INT 3 
00004D67 CC                                           INT 3 
00004D68 CC                                           INT 3 
00004D69 CC                                           INT 3 
00004D6A CC                                           INT 3 
00004D6B CC                                           INT 3 
00004D6C CC                                           INT 3 
00004D6D CC                                           INT 3 
00004D6E CC                                           INT 3 
00004D6F CC                                           INT 3 
00004D70 CC                                           INT 3 
00004D71 CC                                           INT 3 
00004D72 CC                                           INT 3 
00004D73 CC                                           INT 3 
00004D74 CC                                           INT 3 
00004D75 CC                                           INT 3 
00004D76 CC                                           INT 3 
00004D77 CC                                           INT 3 
00004D78 CC                                           INT 3 
00004D79 CC                                           INT 3 
00004D7A CC                                           INT 3 
00004D7B CC                                           INT 3 
00004D7C CC                                           INT 3 
00004D7D CC                                           INT 3 
00004D7E CC                                           INT 3 
00004D7F CC                                           INT 3 
00004D80 CC                                           INT 3 
00004D81 CC                                           INT 3 
00004D82 CC                                           INT 3 
00004D83 CC                                           INT 3 
00004D84 CC                                           INT 3 
00004D85 CC                                           INT 3 
00004D86 CC                                           INT 3 
00004D87 CC                                           INT 3 
00004D88 CC                                           INT 3 
00004D89 CC                                           INT 3 
00004D8A CC                                           INT 3 
00004D8B CC                                           INT 3 
00004D8C CC                                           INT 3 
00004D8D CC                                           INT 3 
00004D8E CC                                           INT 3 
00004D8F CC                                           INT 3 
00004D90 CC                                           INT 3 
00004D91 CC                                           INT 3 
00004D92 CC                                           INT 3 
00004D93 CC                                           INT 3 
00004D94 CC                                           INT 3 
00004D95 CC                                           INT 3 
00004D96 CC                                           INT 3 
00004D97 CC                                           INT 3 
00004D98 CC                                           INT 3 
00004D99 CC                                           INT 3 
00004D9A CC                                           INT 3 
00004D9B CC                                           INT 3 
00004D9C CC                                           INT 3 
00004D9D CC                                           INT 3 
00004D9E CC                                           INT 3 
00004D9F CC                                           INT 3 
00004DA0 CC                                           INT 3 
00004DA1 CC                                           INT 3 
00004DA2 CC                                           INT 3 
00004DA3 CC                                           INT 3 
00004DA4 CC                                           INT 3 
00004DA5 CC                                           INT 3 
00004DA6 CC                                           INT 3 
00004DA7 CC                                           INT 3 
00004DA8 CC                                           INT 3 
00004DA9 CC                                           INT 3 
00004DAA CC                                           INT 3 
00004DAB CC                                           INT 3 
00004DAC CC                                           INT 3 
00004DAD CC                                           INT 3 
00004DAE CC                                           INT 3 
00004DAF CC                                           INT 3 
00004DB0 CC                                           INT 3 
00004DB1 CC                                           INT 3 
00004DB2 CC                                           INT 3 
00004DB3 CC                                           INT 3 
00004DB4 CC                                           INT 3 
00004DB5 CC                                           INT 3 
00004DB6 CC                                           INT 3 
00004DB7 CC                                           INT 3 
00004DB8 CC                                           INT 3 
00004DB9 CC                                           INT 3 
00004DBA CC                                           INT 3 
00004DBB CC                                           INT 3 
00004DBC CC                                           INT 3 
00004DBD CC                                           INT 3 
00004DBE CC                                           INT 3 
00004DBF CC                                           INT 3 
00004DC0 CC                                           INT 3 
00004DC1 CC                                           INT 3 
00004DC2 CC                                           INT 3 
00004DC3 CC                                           INT 3 
00004DC4 CC                                           INT 3 
00004DC5 CC                                           INT 3 
00004DC6 CC                                           INT 3 
00004DC7 CC                                           INT 3 
00004DC8 CC                                           INT 3 
00004DC9 CC                                           INT 3 
00004DCA CC                                           INT 3 
00004DCB CC                                           INT 3 
00004DCC CC                                           INT 3 
00004DCD CC                                           INT 3 
00004DCE CC                                           INT 3 
00004DCF CC                                           INT 3 
00004DD0 CC                                           INT 3 
00004DD1 CC                                           INT 3 
00004DD2 CC                                           INT 3 
00004DD3 CC                                           INT 3 
00004DD4 CC                                           INT 3 
00004DD5 CC                                           INT 3 
00004DD6 CC                                           INT 3 
00004DD7 CC                                           INT 3 
00004DD8 CC                                           INT 3 
00004DD9 CC                                           INT 3 
00004DDA CC                                           INT 3 
00004DDB CC                                           INT 3 
00004DDC CC                                           INT 3 
00004DDD CC                                           INT 3 
00004DDE CC                                           INT 3 
00004DDF CC                                           INT 3 
00004DE0 CC                                           INT 3 
00004DE1 CC                                           INT 3 
00004DE2 CC                                           INT 3 
00004DE3 CC                                           INT 3 
00004DE4 CC                                           INT 3 
00004DE5 CC                                           INT 3 
00004DE6 CC                                           INT 3 
00004DE7 CC                                           INT 3 
00004DE8 CC                                           INT 3 
00004DE9 CC                                           INT 3 
00004DEA CC                                           INT 3 
00004DEB CC                                           INT 3 
00004DEC CC                                           INT 3 
00004DED CC                                           INT 3 
00004DEE CC                                           INT 3 
00004DEF CC                                           INT 3 
00004DF0 CC                                           INT 3 
00004DF1 CC                                           INT 3 
00004DF2 CC                                           INT 3 
00004DF3 CC                                           INT 3 
00004DF4 CC                                           INT 3 
00004DF5 CC                                           INT 3 
00004DF6 CC                                           INT 3 
00004DF7 CC                                           INT 3 
00004DF8 CC                                           INT 3 
00004DF9 CC                                           INT 3 
00004DFA CC                                           INT 3 
00004DFB CC                                           INT 3 
00004DFC CC                                           INT 3 
00004DFD CC                                           INT 3 
00004DFE CC                                           INT 3 
00004DFF CC                                           INT 3 
00004E00 CC                                           INT 3 
00004E01 CC                                           INT 3 
00004E02 CC                                           INT 3 
00004E03 CC                                           INT 3 
00004E04 CC                                           INT 3 
00004E05 CC                                           INT 3 
00004E06 CC                                           INT 3 
00004E07 CC                                           INT 3 
00004E08 CC                                           INT 3 
00004E09 CC                                           INT 3 
00004E0A CC                                           INT 3 
00004E0B CC                                           INT 3 
00004E0C CC                                           INT 3 
00004E0D CC                                           INT 3 
00004E0E CC                                           INT 3 
00004E0F CC                                           INT 3 
00004E10 CC                                           INT 3 
00004E11 CC                                           INT 3 
00004E12 CC                                           INT 3 
00004E13 CC                                           INT 3 
00004E14 CC                                           INT 3 
00004E15 CC                                           INT 3 
00004E16 CC                                           INT 3 
00004E17 CC                                           INT 3 
00004E18 CC                                           INT 3 
00004E19 CC                                           INT 3 
00004E1A CC                                           INT 3 
00004E1B CC                                           INT 3 
00004E1C CC                                           INT 3 
00004E1D CC                                           INT 3 
00004E1E CC                                           INT 3 
00004E1F CC                                           INT 3 
00004E20 CC                                           INT 3 
00004E21 CC                                           INT 3 
00004E22 CC                                           INT 3 
00004E23 CC                                           INT 3 
00004E24 CC                                           INT 3 
00004E25 CC                                           INT 3 
00004E26 CC                                           INT 3 
00004E27 CC                                           INT 3 
00004E28 CC                                           INT 3 
00004E29 CC                                           INT 3 
00004E2A CC                                           INT 3 
00004E2B CC                                           INT 3 
00004E2C CC                                           INT 3 
00004E2D CC                                           INT 3 
00004E2E CC                                           INT 3 
00004E2F CC                                           INT 3 
00004E30 CC                                           INT 3 
00004E31 CC                                           INT 3 
00004E32 CC                                           INT 3 
00004E33 CC                                           INT 3 
00004E34 CC                                           INT 3 
00004E35 CC                                           INT 3 
00004E36 CC                                           INT 3 
00004E37 CC                                           INT 3 
00004E38 CC                                           INT 3 
00004E39 CC                                           INT 3 
00004E3A CC                                           INT 3 
00004E3B CC                                           INT 3 
00004E3C CC                                           INT 3 
00004E3D CC                                           INT 3 
00004E3E CC                                           INT 3 
00004E3F CC                                           INT 3 
00004E40 CC                                           INT 3 
00004E41 CC                                           INT 3 
00004E42 CC                                           INT 3 
00004E43 CC                                           INT 3 
00004E44 CC                                           INT 3 
00004E45 CC                                           INT 3 
00004E46 CC                                           INT 3 
00004E47 CC                                           INT 3 
00004E48 CC                                           INT 3 
00004E49 CC                                           INT 3 
00004E4A CC                                           INT 3 
00004E4B CC                                           INT 3 
00004E4C CC                                           INT 3 
00004E4D CC                                           INT 3 
00004E4E CC                                           INT 3 
00004E4F CC                                           INT 3 
00004E50 CC                                           INT 3 
00004E51 CC                                           INT 3 
00004E52 CC                                           INT 3 
00004E53 CC                                           INT 3 
00004E54 CC                                           INT 3 
00004E55 CC                                           INT 3 
00004E56 CC                                           INT 3 
00004E57 CC                                           INT 3 
00004E58 CC                                           INT 3 
00004E59 CC                                           INT 3 
00004E5A CC                                           INT 3 
00004E5B CC                                           INT 3 
00004E5C CC                                           INT 3 
00004E5D CC                                           INT 3 
00004E5E CC                                           INT 3 
00004E5F CC                                           INT 3 
00004E60 CC                                           INT 3 
00004E61 CC                                           INT 3 
00004E62 CC                                           INT 3 
00004E63 CC                                           INT 3 
00004E64 CC                                           INT 3 
00004E65 CC                                           INT 3 
00004E66 CC                                           INT 3 
00004E67 CC                                           INT 3 
00004E68 CC                                           INT 3 
00004E69 CC                                           INT 3 
00004E6A CC                                           INT 3 
00004E6B CC                                           INT 3 
00004E6C CC                                           INT 3 
00004E6D CC                                           INT 3 
00004E6E CC                                           INT 3 
00004E6F CC                                           INT 3 
00004E70 CC                                           INT 3 
00004E71 CC                                           INT 3 
00004E72 CC                                           INT 3 
00004E73 CC                                           INT 3 
00004E74 CC                                           INT 3 
00004E75 CC                                           INT 3 
00004E76 CC                                           INT 3 
00004E77 CC                                           INT 3 
00004E78 CC                                           INT 3 
00004E79 CC                                           INT 3 
00004E7A CC                                           INT 3 
00004E7B CC                                           INT 3 
00004E7C CC                                           INT 3 
00004E7D CC                                           INT 3 
00004E7E CC                                           INT 3 
00004E7F CC                                           INT 3 
00004E80 CC                                           INT 3 
00004E81 CC                                           INT 3 
00004E82 CC                                           INT 3 
00004E83 CC                                           INT 3 
00004E84 CC                                           INT 3 
00004E85 CC                                           INT 3 
00004E86 CC                                           INT 3 
00004E87 CC                                           INT 3 
00004E88 CC                                           INT 3 
00004E89 CC                                           INT 3 
00004E8A CC                                           INT 3 
00004E8B CC                                           INT 3 
00004E8C CC                                           INT 3 
00004E8D CC                                           INT 3 
00004E8E CC                                           INT 3 
00004E8F CC                                           INT 3 
00004E90 CC                                           INT 3 
00004E91 CC                                           INT 3 
00004E92 CC                                           INT 3 
00004E93 CC                                           INT 3 
00004E94 CC                                           INT 3 
00004E95 CC                                           INT 3 
00004E96 CC                                           INT 3 
00004E97 CC                                           INT 3 
00004E98 CC                                           INT 3 
00004E99 CC                                           INT 3 
00004E9A CC                                           INT 3 
00004E9B CC                                           INT 3 
00004E9C CC                                           INT 3 
00004E9D CC                                           INT 3 
00004E9E CC                                           INT 3 
00004E9F CC                                           INT 3 
00004EA0 CC                                           INT 3 
00004EA1 CC                                           INT 3 
00004EA2 CC                                           INT 3 
00004EA3 CC                                           INT 3 
00004EA4 CC                                           INT 3 
00004EA5 CC                                           INT 3 
00004EA6 CC                                           INT 3 
00004EA7 CC                                           INT 3 
00004EA8 CC                                           INT 3 
00004EA9 CC                                           INT 3 
00004EAA CC                                           INT 3 
00004EAB CC                                           INT 3 
00004EAC CC                                           INT 3 
00004EAD CC                                           INT 3 
00004EAE CC                                           INT 3 
00004EAF CC                                           INT 3 
00004EB0 CC                                           INT 3 
00004EB1 CC                                           INT 3 
00004EB2 CC                                           INT 3 
00004EB3 CC                                           INT 3 
00004EB4 CC                                           INT 3 
00004EB5 CC                                           INT 3 
00004EB6 CC                                           INT 3 
00004EB7 CC                                           INT 3 
00004EB8 CC                                           INT 3 
00004EB9 CC                                           INT 3 
00004EBA CC                                           INT 3 
00004EBB CC                                           INT 3 
00004EBC CC                                           INT 3 
00004EBD CC                                           INT 3 
00004EBE CC                                           INT 3 
00004EBF CC                                           INT 3 
00004EC0 CC                                           INT 3 
00004EC1 CC                                           INT 3 
00004EC2 CC                                           INT 3 
00004EC3 CC                                           INT 3 
00004EC4 CC                                           INT 3 
00004EC5 CC                                           INT 3 
00004EC6 CC                                           INT 3 
00004EC7 CC                                           INT 3 
00004EC8 CC                                           INT 3 
00004EC9 CC                                           INT 3 
00004ECA CC                                           INT 3 
00004ECB CC                                           INT 3 
00004ECC CC                                           INT 3 
00004ECD CC                                           INT 3 
00004ECE CC                                           INT 3 
00004ECF CC                                           INT 3 
00004ED0 CC                                           INT 3 
00004ED1 CC                                           INT 3 
00004ED2 CC                                           INT 3 
00004ED3 CC                                           INT 3 
00004ED4 CC                                           INT 3 
00004ED5 CC                                           INT 3 
00004ED6 CC                                           INT 3 
00004ED7 CC                                           INT 3 
00004ED8 CC                                           INT 3 
00004ED9 CC                                           INT 3 
00004EDA CC                                           INT 3 
00004EDB CC                                           INT 3 
00004EDC CC                                           INT 3 
00004EDD CC                                           INT 3 
00004EDE CC                                           INT 3 
00004EDF CC                                           INT 3 
00004EE0 CC                                           INT 3 
00004EE1 CC                                           INT 3 
00004EE2 CC                                           INT 3 
00004EE3 CC                                           INT 3 
00004EE4 CC                                           INT 3 
00004EE5 CC                                           INT 3 
00004EE6 CC                                           INT 3 
00004EE7 CC                                           INT 3 
00004EE8 CC                                           INT 3 
00004EE9 CC                                           INT 3 
00004EEA CC                                           INT 3 
00004EEB CC                                           INT 3 
00004EEC CC                                           INT 3 
00004EED CC                                           INT 3 
00004EEE CC                                           INT 3 
00004EEF CC                                           INT 3 
00004EF0 CC                                           INT 3 
00004EF1 CC                                           INT 3 
00004EF2 CC                                           INT 3 
00004EF3 CC                                           INT 3 
00004EF4 CC                                           INT 3 
00004EF5 CC                                           INT 3 
00004EF6 CC                                           INT 3 
00004EF7 CC                                           INT 3 
00004EF8 CC                                           INT 3 
00004EF9 CC                                           INT 3 
00004EFA CC                                           INT 3 
00004EFB CC                                           INT 3 
00004EFC CC                                           INT 3 
00004EFD CC                                           INT 3 
00004EFE CC                                           INT 3 
00004EFF CC                                           INT 3 
00004F00 CC                                           INT 3 
00004F01 CC                                           INT 3 
00004F02 CC                                           INT 3 
00004F03 CC                                           INT 3 
00004F04 CC                                           INT 3 
00004F05 CC                                           INT 3 
00004F06 CC                                           INT 3 
00004F07 CC                                           INT 3 
00004F08 CC                                           INT 3 
00004F09 CC                                           INT 3 
00004F0A CC                                           INT 3 
00004F0B CC                                           INT 3 
00004F0C CC                                           INT 3 
00004F0D CC                                           INT 3 
00004F0E CC                                           INT 3 
00004F0F CC                                           INT 3 
00004F10 CC                                           INT 3 
00004F11 CC                                           INT 3 
00004F12 CC                                           INT 3 
00004F13 CC                                           INT 3 
00004F14 CC                                           INT 3 
00004F15 CC                                           INT 3 
00004F16 CC                                           INT 3 
00004F17 CC                                           INT 3 
00004F18 CC                                           INT 3 
00004F19 CC                                           INT 3 
00004F1A CC                                           INT 3 
00004F1B CC                                           INT 3 
00004F1C CC                                           INT 3 
00004F1D CC                                           INT 3 
00004F1E CC                                           INT 3 
00004F1F CC                                           INT 3 
00004F20 CC                                           INT 3 
00004F21 CC                                           INT 3 
00004F22 CC                                           INT 3 
00004F23 CC                                           INT 3 
00004F24 CC                                           INT 3 
00004F25 CC                                           INT 3 
00004F26 CC                                           INT 3 
00004F27 CC                                           INT 3 
00004F28 CC                                           INT 3 
00004F29 CC                                           INT 3 
00004F2A CC                                           INT 3 
00004F2B CC                                           INT 3 
00004F2C CC                                           INT 3 
00004F2D CC                                           INT 3 
00004F2E CC                                           INT 3 
00004F2F CC                                           INT 3 
00004F30 CC                                           INT 3 
00004F31 CC                                           INT 3 
00004F32 CC                                           INT 3 
00004F33 CC                                           INT 3 
00004F34 CC                                           INT 3 
00004F35 CC                                           INT 3 
00004F36 CC                                           INT 3 
00004F37 CC                                           INT 3 
00004F38 CC                                           INT 3 
00004F39 CC                                           INT 3 
00004F3A CC                                           INT 3 
00004F3B CC                                           INT 3 
00004F3C CC                                           INT 3 
00004F3D CC                                           INT 3 
00004F3E CC                                           INT 3 
00004F3F CC                                           INT 3 
00004F40 CC                                           INT 3 
00004F41 CC                                           INT 3 
00004F42 CC                                           INT 3 
00004F43 CC                                           INT 3 
00004F44 CC                                           INT 3 
00004F45 CC                                           INT 3 
00004F46 CC                                           INT 3 
00004F47 CC                                           INT 3 
00004F48 CC                                           INT 3 
00004F49 CC                                           INT 3 
00004F4A CC                                           INT 3 
00004F4B CC                                           INT 3 
00004F4C CC                                           INT 3 
00004F4D CC                                           INT 3 
00004F4E CC                                           INT 3 
00004F4F CC                                           INT 3 
00004F50 CC                                           INT 3 
00004F51 CC                                           INT 3 
00004F52 CC                                           INT 3 
00004F53 CC                                           INT 3 
00004F54 CC                                           INT 3 
00004F55 CC                                           INT 3 
00004F56 CC                                           INT 3 
00004F57 CC                                           INT 3 
00004F58 CC                                           INT 3 
00004F59 CC                                           INT 3 
00004F5A CC                                           INT 3 
00004F5B CC                                           INT 3 
00004F5C CC                                           INT 3 
00004F5D CC                                           INT 3 
00004F5E CC                                           INT 3 
00004F5F CC                                           INT 3 
00004F60 CC                                           INT 3 
00004F61 CC                                           INT 3 
00004F62 CC                                           INT 3 
00004F63 CC                                           INT 3 
00004F64 CC                                           INT 3 
00004F65 CC                                           INT 3 
00004F66 CC                                           INT 3 
00004F67 CC                                           INT 3 
00004F68 CC                                           INT 3 
00004F69 CC                                           INT 3 
00004F6A CC                                           INT 3 
00004F6B CC                                           INT 3 
00004F6C CC                                           INT 3 
00004F6D CC                                           INT 3 
00004F6E CC                                           INT 3 
00004F6F CC                                           INT 3 
00004F70 CC                                           INT 3 
00004F71 CC                                           INT 3 
00004F72 CC                                           INT 3 
00004F73 CC                                           INT 3 
00004F74 CC                                           INT 3 
00004F75 CC                                           INT 3 
00004F76 CC                                           INT 3 
00004F77 CC                                           INT 3 
00004F78 CC                                           INT 3 
00004F79 CC                                           INT 3 
00004F7A CC                                           INT 3 
00004F7B CC                                           INT 3 
00004F7C CC                                           INT 3 
00004F7D CC                                           INT 3 
00004F7E CC                                           INT 3 
00004F7F CC                                           INT 3 
00004F80 CC                                           INT 3 
00004F81 CC                                           INT 3 
00004F82 CC                                           INT 3 
00004F83 CC                                           INT 3 
00004F84 CC                                           INT 3 
00004F85 CC                                           INT 3 
00004F86 CC                                           INT 3 
00004F87 CC                                           INT 3 
00004F88 CC                                           INT 3 
00004F89 CC                                           INT 3 
00004F8A CC                                           INT 3 
00004F8B CC                                           INT 3 
00004F8C CC                                           INT 3 
00004F8D CC                                           INT 3 
00004F8E CC                                           INT 3 
00004F8F CC                                           INT 3 
00004F90 CC                                           INT 3 
00004F91 CC                                           INT 3 
00004F92 CC                                           INT 3 
00004F93 CC                                           INT 3 
00004F94 CC                                           INT 3 
00004F95 CC                                           INT 3 
00004F96 CC                                           INT 3 
00004F97 CC                                           INT 3 
00004F98 CC                                           INT 3 
00004F99 CC                                           INT 3 
00004F9A CC                                           INT 3 
00004F9B CC                                           INT 3 
00004F9C CC                                           INT 3 
00004F9D CC                                           INT 3 
00004F9E CC                                           INT 3 
00004F9F CC                                           INT 3 
00004FA0 CC                                           INT 3 
00004FA1 CC                                           INT 3 
00004FA2 CC                                           INT 3 
00004FA3 CC                                           INT 3 
00004FA4 CC                                           INT 3 
00004FA5 CC                                           INT 3 
00004FA6 CC                                           INT 3 
00004FA7 CC                                           INT 3 
00004FA8 CC                                           INT 3 
00004FA9 CC                                           INT 3 
00004FAA CC                                           INT 3 
00004FAB CC                                           INT 3 
00004FAC CC                                           INT 3 
00004FAD CC                                           INT 3 
00004FAE CC                                           INT 3 
00004FAF CC                                           INT 3 
00004FB0 CC                                           INT 3 
00004FB1 CC                                           INT 3 
00004FB2 CC                                           INT 3 
00004FB3 CC                                           INT 3 
00004FB4 CC                                           INT 3 
00004FB5 CC                                           INT 3 
00004FB6 CC                                           INT 3 
00004FB7 CC                                           INT 3 
00004FB8 CC                                           INT 3 
00004FB9 CC                                           INT 3 
00004FBA CC                                           INT 3 
00004FBB CC                                           INT 3 
00004FBC CC                                           INT 3 
00004FBD CC                                           INT 3 
00004FBE CC                                           INT 3 
00004FBF CC                                           INT 3 
00004FC0 CC                                           INT 3 
00004FC1 CC                                           INT 3 
00004FC2 CC                                           INT 3 
00004FC3 CC                                           INT 3 
00004FC4 CC                                           INT 3 
00004FC5 CC                                           INT 3 
00004FC6 CC                                           INT 3 
00004FC7 CC                                           INT 3 
00004FC8 CC                                           INT 3 
00004FC9 CC                                           INT 3 
00004FCA CC                                           INT 3 
00004FCB CC                                           INT 3 
00004FCC CC                                           INT 3 
00004FCD CC                                           INT 3 
00004FCE CC                                           INT 3 
00004FCF CC                                           INT 3 
00004FD0 CC                                           INT 3 
00004FD1 CC                                           INT 3 
00004FD2 CC                                           INT 3 
00004FD3 CC                                           INT 3 
00004FD4 CC                                           INT 3 
00004FD5 CC                                           INT 3 
00004FD6 CC                                           INT 3 
00004FD7 CC                                           INT 3 
00004FD8 CC                                           INT 3 
00004FD9 CC                                           INT 3 
00004FDA CC                                           INT 3 
00004FDB CC                                           INT 3 
00004FDC CC                                           INT 3 
00004FDD CC                                           INT 3 
00004FDE CC                                           INT 3 
00004FDF CC                                           INT 3 
00004FE0 CC                                           INT 3 
00004FE1 CC                                           INT 3 
00004FE2 CC                                           INT 3 
00004FE3 CC                                           INT 3 
00004FE4 CC                                           INT 3 
00004FE5 CC                                           INT 3 
00004FE6 CC                                           INT 3 
00004FE7 CC                                           INT 3 
00004FE8 CC                                           INT 3 
00004FE9 CC                                           INT 3 
00004FEA CC                                           INT 3 
00004FEB CC                                           INT 3 
00004FEC CC                                           INT 3 
00004FED CC                                           INT 3 
00004FEE CC                                           INT 3 
00004FEF CC                                           INT 3 
00004FF0 CC                                           INT 3 
00004FF1 CC                                           INT 3 
00004FF2 CC                                           INT 3 
00004FF3 CC                                           INT 3 
00004FF4 CC                                           INT 3 
00004FF5 CC                                           INT 3 
00004FF6 CC                                           INT 3 
00004FF7 CC                                           INT 3 
00004FF8 CC                                           INT 3 
00004FF9 CC                                           INT 3 
00004FFA CC                                           INT 3 
00004FFB CC                                           INT 3 
00004FFC CC                                           INT 3 
00004FFD CC                                           INT 3 
00004FFE CC                                           INT 3 
00004FFF CC                                           INT 3 
00005000 CC                                           INT 3 
00005001 CC                                           INT 3 
00005002 CC                                           INT 3 
00005003 CC                                           INT 3 
00005004 CC                                           INT 3 
00005005 CC                                           INT 3 
00005006 CC                                           INT 3 
00005007 CC                                           INT 3 
00005008 CC                                           INT 3 
00005009 CC                                           INT 3 
0000500A CC                                           INT 3 
0000500B CC                                           INT 3 
0000500C CC                                           INT 3 
0000500D CC                                           INT 3 
0000500E CC                                           INT 3 
0000500F CC                                           INT 3 
00005010 CC                                           INT 3 
00005011 CC                                           INT 3 
00005012 CC                                           INT 3 
00005013 CC                                           INT 3 
00005014 CC                                           INT 3 
00005015 CC                                           INT 3 
00005016 CC                                           INT 3 
00005017 CC                                           INT 3 
00005018 CC                                           INT 3 
00005019 CC                                           INT 3 
0000501A CC                                           INT 3 
0000501B CC                                           INT 3 
0000501C CC                                           INT 3 
0000501D CC                                           INT 3 
0000501E CC                                           INT 3 
0000501F CC                                           INT 3 
00005020 CC                                           INT 3 
00005021 CC                                           INT 3 
00005022 CC                                           INT 3 
00005023 CC                                           INT 3 
00005024 CC                                           INT 3 
00005025 CC                                           INT 3 
00005026 CC                                           INT 3 
00005027 CC                                           INT 3 
00005028 CC                                           INT 3 
00005029 CC                                           INT 3 
0000502A CC                                           INT 3 
0000502B CC                                           INT 3 
0000502C CC                                           INT 3 
0000502D CC                                           INT 3 
0000502E CC                                           INT 3 
0000502F CC                                           INT 3 
00005030 CC                                           INT 3 
00005031 CC                                           INT 3 
00005032 CC                                           INT 3 
00005033 CC                                           INT 3 
00005034 CC                                           INT 3 
00005035 CC                                           INT 3 
00005036 CC                                           INT 3 
00005037 CC                                           INT 3 
00005038 CC                                           INT 3 
00005039 CC                                           INT 3 
0000503A CC                                           INT 3 
0000503B CC                                           INT 3 
0000503C CC                                           INT 3 
0000503D CC                                           INT 3 
0000503E CC                                           INT 3 
0000503F CC                                           INT 3 
00005040 CC                                           INT 3 
00005041 CC                                           INT 3 
00005042 CC                                           INT 3 
00005043 CC                                           INT 3 
00005044 CC                                           INT 3 
00005045 CC                                           INT 3 
00005046 CC                                           INT 3 
00005047 CC                                           INT 3 
00005048 CC                                           INT 3 
00005049 CC                                           INT 3 
0000504A CC                                           INT 3 
0000504B CC                                           INT 3 
0000504C CC                                           INT 3 
0000504D CC                                           INT 3 
0000504E CC                                           INT 3 
0000504F CC                                           INT 3 
00005050 CC                                           INT 3 
00005051 CC                                           INT 3 
00005052 CC                                           INT 3 
00005053 CC                                           INT 3 
00005054 CC                                           INT 3 
00005055 CC                                           INT 3 
00005056 CC                                           INT 3 
00005057 CC                                           INT 3 
00005058 CC                                           INT 3 
00005059 CC                                           INT 3 
0000505A CC                                           INT 3 
0000505B CC                                           INT 3 
0000505C CC                                           INT 3 
0000505D CC                                           INT 3 
0000505E CC                                           INT 3 
0000505F CC                                           INT 3 
00005060 CC                                           INT 3 
00005061 CC                                           INT 3 
00005062 CC                                           INT 3 
00005063 CC                                           INT 3 
00005064 CC                                           INT 3 
00005065 CC                                           INT 3 
00005066 CC                                           INT 3 
00005067 CC                                           INT 3 
00005068 CC                                           INT 3 
00005069 CC                                           INT 3 
0000506A CC                                           INT 3 
0000506B CC                                           INT 3 
0000506C CC                                           INT 3 
0000506D CC                                           INT 3 
0000506E CC                                           INT 3 
0000506F CC                                           INT 3 
00005070 CC                                           INT 3 
00005071 CC                                           INT 3 
00005072 CC                                           INT 3 
00005073 CC                                           INT 3 
00005074 CC                                           INT 3 
00005075 CC                                           INT 3 
00005076 CC                                           INT 3 
00005077 CC                                           INT 3 
00005078 CC                                           INT 3 
00005079 CC                                           INT 3 
0000507A CC                                           INT 3 
0000507B CC                                           INT 3 
0000507C CC                                           INT 3 
0000507D CC                                           INT 3 
0000507E CC                                           INT 3 
0000507F CC                                           INT 3 
00005080 CC                                           INT 3 
00005081 CC                                           INT 3 
00005082 CC                                           INT 3 
00005083 CC                                           INT 3 
00005084 CC                                           INT 3 
00005085 CC                                           INT 3 
00005086 CC                                           INT 3 
00005087 CC                                           INT 3 
00005088 CC                                           INT 3 
00005089 CC                                           INT 3 
0000508A CC                                           INT 3 
0000508B CC                                           INT 3 
0000508C CC                                           INT 3 
0000508D CC                                           INT 3 
0000508E CC                                           INT 3 
0000508F CC                                           INT 3 
00005090 CC                                           INT 3 
00005091 CC                                           INT 3 
00005092 CC                                           INT 3 
00005093 CC                                           INT 3 
00005094 CC                                           INT 3 
00005095 CC                                           INT 3 
00005096 CC                                           INT 3 
00005097 CC                                           INT 3 
00005098 CC                                           INT 3 
00005099 CC                                           INT 3 
0000509A CC                                           INT 3 
0000509B CC                                           INT 3 
0000509C CC                                           INT 3 
0000509D CC                                           INT 3 
0000509E CC                                           INT 3 
0000509F CC                                           INT 3 
000050A0 CC                                           INT 3 
000050A1 CC                                           INT 3 
000050A2 CC                                           INT 3 
000050A3 CC                                           INT 3 
000050A4 CC                                           INT 3 
000050A5 CC                                           INT 3 
000050A6 CC                                           INT 3 
000050A7 CC                                           INT 3 
000050A8 CC                                           INT 3 
000050A9 CC                                           INT 3 
000050AA CC                                           INT 3 
000050AB CC                                           INT 3 
000050AC CC                                           INT 3 
000050AD CC                                           INT 3 
000050AE CC                                           INT 3 
000050AF CC                                           INT 3 
000050B0 CC                                           INT 3 
000050B1 CC                                           INT 3 
000050B2 CC                                           INT 3 
000050B3 CC                                           INT 3 
000050B4 CC                                           INT 3 
000050B5 CC                                           INT 3 
000050B6 CC                                           INT 3 
000050B7 CC                                           INT 3 
000050B8 CC                                           INT 3 
000050B9 CC                                           INT 3 
000050BA CC                                           INT 3 
000050BB CC                                           INT 3 
000050BC CC                                           INT 3 
000050BD CC                                           INT 3 
000050BE CC                                           INT 3 
000050BF CC                                           INT 3 
000050C0 CC                                           INT 3 
000050C1 CC                                           INT 3 
000050C2 CC                                           INT 3 
000050C3 CC                                           INT 3 
000050C4 CC                                           INT 3 
000050C5 CC                                           INT 3 
000050C6 CC                                           INT 3 
000050C7 CC                                           INT 3 
000050C8 CC                                           INT 3 
000050C9 CC                                           INT 3 
000050CA CC                                           INT 3 
000050CB CC                                           INT 3 
000050CC CC                                           INT 3 
000050CD CC                                           INT 3 
000050CE CC                                           INT 3 
000050CF CC                                           INT 3 
000050D0 CC                                           INT 3 
000050D1 CC                                           INT 3 
000050D2 CC                                           INT 3 
000050D3 CC                                           INT 3 
000050D4 CC                                           INT 3 
000050D5 CC                                           INT 3 
000050D6 CC                                           INT 3 
000050D7 CC                                           INT 3 
000050D8 CC                                           INT 3 
000050D9 CC                                           INT 3 
000050DA CC                                           INT 3 
000050DB CC                                           INT 3 
000050DC CC                                           INT 3 
000050DD CC                                           INT 3 
000050DE CC                                           INT 3 
000050DF CC                                           INT 3 
000050E0 CC                                           INT 3 
000050E1 CC                                           INT 3 
000050E2 CC                                           INT 3 
000050E3 CC                                           INT 3 
000050E4 CC                                           INT 3 
000050E5 CC                                           INT 3 
000050E6 CC                                           INT 3 
000050E7 CC                                           INT 3 
000050E8 CC                                           INT 3 
000050E9 CC                                           INT 3 
000050EA CC                                           INT 3 
000050EB CC                                           INT 3 
000050EC CC                                           INT 3 
000050ED CC                                           INT 3 
000050EE CC                                           INT 3 
000050EF CC                                           INT 3 
000050F0 CC                                           INT 3 
000050F1 CC                                           INT 3 
000050F2 CC                                           INT 3 
000050F3 CC                                           INT 3 
000050F4 CC                                           INT 3 
000050F5 CC                                           INT 3 
000050F6 CC                                           INT 3 
000050F7 CC                                           INT 3 
000050F8 CC                                           INT 3 
000050F9 CC                                           INT 3 
000050FA CC                                           INT 3 
000050FB CC                                           INT 3 
000050FC CC                                           INT 3 
000050FD CC                                           INT 3 
000050FE CC                                           INT 3 
000050FF CC                                           INT 3 
00005100 CC                                           INT 3 
00005101 CC                                           INT 3 
00005102 CC                                           INT 3 
00005103 CC                                           INT 3 
00005104 CC                                           INT 3 
00005105 CC                                           INT 3 
00005106 CC                                           INT 3 
00005107 CC                                           INT 3 
00005108 CC                                           INT 3 
00005109 CC                                           INT 3 
0000510A CC                                           INT 3 
0000510B CC                                           INT 3 
0000510C CC                                           INT 3 
0000510D CC                                           INT 3 
0000510E CC                                           INT 3 
0000510F CC                                           INT 3 
00005110 CC                                           INT 3 
00005111 CC                                           INT 3 
00005112 CC                                           INT 3 
00005113 CC                                           INT 3 
00005114 CC                                           INT 3 
00005115 CC                                           INT 3 
00005116 CC                                           INT 3 
00005117 CC                                           INT 3 
00005118 CC                                           INT 3 
00005119 CC                                           INT 3 
0000511A CC                                           INT 3 
0000511B CC                                           INT 3 
0000511C CC                                           INT 3 
0000511D CC                                           INT 3 
0000511E CC                                           INT 3 
0000511F CC                                           INT 3 
00005120 CC                                           INT 3 
00005121 CC                                           INT 3 
00005122 CC                                           INT 3 
00005123 CC                                           INT 3 
00005124 CC                                           INT 3 
00005125 CC                                           INT 3 
00005126 CC                                           INT 3 
00005127 CC                                           INT 3 
00005128 CC                                           INT 3 
00005129 CC                                           INT 3 
0000512A CC                                           INT 3 
0000512B CC                                           INT 3 
0000512C CC                                           INT 3 
0000512D CC                                           INT 3 
0000512E CC                                           INT 3 
0000512F CC                                           INT 3 
00005130 CC                                           INT 3 
00005131 CC                                           INT 3 
00005132 CC                                           INT 3 
00005133 CC                                           INT 3 
00005134 CC                                           INT 3 
00005135 CC                                           INT 3 
00005136 CC                                           INT 3 
00005137 CC                                           INT 3 
00005138 CC                                           INT 3 
00005139 CC                                           INT 3 
0000513A CC                                           INT 3 
0000513B CC                                           INT 3 
0000513C CC                                           INT 3 
0000513D CC                                           INT 3 
0000513E CC                                           INT 3 
0000513F CC                                           INT 3 
00005140 CC                                           INT 3 
00005141 CC                                           INT 3 
00005142 CC                                           INT 3 
00005143 CC                                           INT 3 
00005144 CC                                           INT 3 
00005145 CC                                           INT 3 
00005146 CC                                           INT 3 
00005147 CC                                           INT 3 
00005148 CC                                           INT 3 
00005149 CC                                           INT 3 
0000514A CC                                           INT 3 
0000514B CC                                           INT 3 
0000514C CC                                           INT 3 
0000514D CC                                           INT 3 
0000514E CC                                           INT 3 
0000514F CC                                           INT 3 
00005150 CC                                           INT 3 
00005151 CC                                           INT 3 
00005152 CC                                           INT 3 
00005153 CC                                           INT 3 
00005154 CC                                           INT 3 
00005155 CC                                           INT 3 
00005156 CC                                           INT 3 
00005157 CC                                           INT 3 
00005158 CC                                           INT 3 
00005159 CC                                           INT 3 
0000515A CC                                           INT 3 
0000515B CC                                           INT 3 
0000515C CC                                           INT 3 
0000515D CC                                           INT 3 
0000515E CC                                           INT 3 
0000515F CC                                           INT 3 
00005160 CC                                           INT 3 
00005161 CC                                           INT 3 
00005162 CC                                           INT 3 
00005163 CC                                           INT 3 
00005164 CC                                           INT 3 
00005165 CC                                           INT 3 
00005166 CC                                           INT 3 
00005167 CC                                           INT 3 
00005168 CC                                           INT 3 
00005169 CC                                           INT 3 
0000516A CC                                           INT 3 
0000516B CC                                           INT 3 
0000516C CC                                           INT 3 
0000516D CC                                           INT 3 
0000516E CC                                           INT 3 
0000516F CC                                           INT 3 
00005170 CC                                           INT 3 
00005171 CC                                           INT 3 
00005172 CC                                           INT 3 
00005173 CC                                           INT 3 
00005174 CC                                           INT 3 
00005175 CC                                           INT 3 
00005176 CC                                           INT 3 
00005177 CC                                           INT 3 
00005178 CC                                           INT 3 
00005179 CC                                           INT 3 
0000517A CC                                           INT 3 
0000517B CC                                           INT 3 
0000517C CC                                           INT 3 
0000517D CC                                           INT 3 
0000517E CC                                           INT 3 
0000517F CC                                           INT 3 
00005180 CC                                           INT 3 
00005181 CC                                           INT 3 
00005182 CC                                           INT 3 
00005183 CC                                           INT 3 
00005184 CC                                           INT 3 
00005185 CC                                           INT 3 
00005186 CC                                           INT 3 
00005187 CC                                           INT 3 
00005188 CC                                           INT 3 
00005189 CC                                           INT 3 
0000518A CC                                           INT 3 
0000518B CC                                           INT 3 
0000518C CC                                           INT 3 
0000518D CC                                           INT 3 
0000518E CC                                           INT 3 
0000518F CC                                           INT 3 
00005190 CC                                           INT 3 
00005191 CC                                           INT 3 
00005192 CC                                           INT 3 
00005193 CC                                           INT 3 
00005194 CC                                           INT 3 
00005195 CC                                           INT 3 
00005196 CC                                           INT 3 
00005197 CC                                           INT 3 
00005198 CC                                           INT 3 
00005199 CC                                           INT 3 
0000519A CC                                           INT 3 
0000519B CC                                           INT 3 
0000519C CC                                           INT 3 
0000519D CC                                           INT 3 
0000519E CC                                           INT 3 
0000519F CC                                           INT 3 
000051A0 CC                                           INT 3 
000051A1 CC                                           INT 3 
000051A2 CC                                           INT 3 
000051A3 CC                                           INT 3 
000051A4 CC                                           INT 3 
000051A5 CC                                           INT 3 
000051A6 CC                                           INT 3 
000051A7 CC                                           INT 3 
000051A8 CC                                           INT 3 
000051A9 CC                                           INT 3 
000051AA CC                                           INT 3 
000051AB CC                                           INT 3 
000051AC CC                                           INT 3 
000051AD CC                                           INT 3 
000051AE CC                                           INT 3 
000051AF CC                                           INT 3 
000051B0 CC                                           INT 3 
000051B1 CC                                           INT 3 
000051B2 CC                                           INT 3 
000051B3 CC                                           INT 3 
000051B4 CC                                           INT 3 
000051B5 CC                                           INT 3 
000051B6 CC                                           INT 3 
000051B7 CC                                           INT 3 
000051B8 CC                                           INT 3 
000051B9 CC                                           INT 3 
000051BA CC                                           INT 3 
000051BB CC                                           INT 3 
000051BC CC                                           INT 3 
000051BD CC                                           INT 3 
000051BE CC                                           INT 3 
000051BF CC                                           INT 3 
000051C0 CC                                           INT 3 
000051C1 CC                                           INT 3 
000051C2 CC                                           INT 3 
000051C3 CC                                           INT 3 
000051C4 CC                                           INT 3 
000051C5 CC                                           INT 3 
000051C6 CC                                           INT 3 
000051C7 CC                                           INT 3 
000051C8 CC                                           INT 3 
000051C9 CC                                           INT 3 
000051CA CC                                           INT 3 
000051CB CC                                           INT 3 
000051CC CC                                           INT 3 
000051CD CC                                           INT 3 
000051CE CC                                           INT 3 
000051CF CC                                           INT 3 
000051D0 CC                                           INT 3 
000051D1 CC                                           INT 3 
000051D2 CC                                           INT 3 
000051D3 CC                                           INT 3 
000051D4 CC                                           INT 3 
000051D5 CC                                           INT 3 
000051D6 CC                                           INT 3 
000051D7 CC                                           INT 3 
000051D8 CC                                           INT 3 
000051D9 CC                                           INT 3 
000051DA CC                                           INT 3 
000051DB CC                                           INT 3 
000051DC CC                                           INT 3 
000051DD CC                                           INT 3 
000051DE CC                                           INT 3 
000051DF CC                                           INT 3 
000051E0 CC                                           INT 3 
000051E1 CC                                           INT 3 
000051E2 CC                                           INT 3 
000051E3 CC                                           INT 3 
000051E4 CC                                           INT 3 
000051E5 CC                                           INT 3 
000051E6 CC                                           INT 3 
000051E7 CC                                           INT 3 
000051E8 CC                                           INT 3 
000051E9 CC                                           INT 3 
000051EA CC                                           INT 3 
000051EB CC                                           INT 3 
000051EC CC                                           INT 3 
000051ED CC                                           INT 3 
000051EE CC                                           INT 3 
000051EF CC                                           INT 3 
000051F0 CC                                           INT 3 
000051F1 CC                                           INT 3 
000051F2 CC                                           INT 3 
000051F3 CC                                           INT 3 
000051F4 CC                                           INT 3 
000051F5 CC                                           INT 3 
000051F6 CC                                           INT 3 
000051F7 CC                                           INT 3 
000051F8 CC                                           INT 3 
000051F9 CC                                           INT 3 
000051FA CC                                           INT 3 
000051FB CC                                           INT 3 
000051FC CC                                           INT 3 
000051FD CC                                           INT 3 
000051FE CC                                           INT 3 
000051FF CC                                           INT 3 
00005200 CC                                           INT 3 
00005201 CC                                           INT 3 
00005202 CC                                           INT 3 
00005203 CC                                           INT 3 
00005204 CC                                           INT 3 
00005205 CC                                           INT 3 
00005206 CC                                           INT 3 
00005207 CC                                           INT 3 
00005208 CC                                           INT 3 
00005209 CC                                           INT 3 
0000520A CC                                           INT 3 
0000520B CC                                           INT 3 
0000520C CC                                           INT 3 
0000520D CC                                           INT 3 
0000520E CC                                           INT 3 
0000520F CC                                           INT 3 
00005210 CC                                           INT 3 
00005211 CC                                           INT 3 
00005212 CC                                           INT 3 
00005213 CC                                           INT 3 
00005214 CC                                           INT 3 
00005215 CC                                           INT 3 
00005216 CC                                           INT 3 
00005217 CC                                           INT 3 
00005218 CC                                           INT 3 
00005219 CC                                           INT 3 
0000521A CC                                           INT 3 
0000521B CC                                           INT 3 
0000521C CC                                           INT 3 
0000521D CC                                           INT 3 
0000521E CC                                           INT 3 
0000521F CC                                           INT 3 
00005220 CC                                           INT 3 
00005221 CC                                           INT 3 
00005222 CC                                           INT 3 
00005223 CC                                           INT 3 
00005224 CC                                           INT 3 
00005225 CC                                           INT 3 
00005226 CC                                           INT 3 
00005227 CC                                           INT 3 
00005228 CC                                           INT 3 
00005229 CC                                           INT 3 
0000522A CC                                           INT 3 
0000522B CC                                           INT 3 
0000522C CC                                           INT 3 
0000522D CC                                           INT 3 
0000522E CC                                           INT 3 
0000522F CC                                           INT 3 
00005230 CC                                           INT 3 
00005231 CC                                           INT 3 
00005232 CC                                           INT 3 
00005233 CC                                           INT 3 
00005234 CC                                           INT 3 
00005235 CC                                           INT 3 
00005236 CC                                           INT 3 
00005237 CC                                           INT 3 
00005238 CC                                           INT 3 
00005239 CC                                           INT 3 
0000523A CC                                           INT 3 
0000523B CC                                           INT 3 
0000523C CC                                           INT 3 
0000523D CC                                           INT 3 
0000523E CC                                           INT 3 
0000523F CC                                           INT 3 
00005240 CC                                           INT 3 
00005241 CC                                           INT 3 
00005242 CC                                           INT 3 
00005243 CC                                           INT 3 
00005244 CC                                           INT 3 
00005245 CC                                           INT 3 
00005246 CC                                           INT 3 
00005247 CC                                           INT 3 
00005248 CC                                           INT 3 
00005249 CC                                           INT 3 
0000524A CC                                           INT 3 
0000524B CC                                           INT 3 
0000524C CC                                           INT 3 
0000524D CC                                           INT 3 
0000524E CC                                           INT 3 
0000524F CC                                           INT 3 
00005250 CC                                           INT 3 
00005251 CC                                           INT 3 
00005252 CC                                           INT 3 
00005253 CC                                           INT 3 
00005254 CC                                           INT 3 
00005255 CC                                           INT 3 
00005256 CC                                           INT 3 
00005257 CC                                           INT 3 
00005258 CC                                           INT 3 
00005259 CC                                           INT 3 
0000525A CC                                           INT 3 
0000525B CC                                           INT 3 
0000525C CC                                           INT 3 
0000525D CC                                           INT 3 
0000525E CC                                           INT 3 
0000525F CC                                           INT 3 
00005260 CC                                           INT 3 
00005261 CC                                           INT 3 
00005262 CC                                           INT 3 
00005263 CC                                           INT 3 
00005264 CC                                           INT 3 
00005265 CC                                           INT 3 
00005266 CC                                           INT 3 
00005267 CC                                           INT 3 
00005268 CC                                           INT 3 
00005269 CC                                           INT 3 
0000526A CC                                           INT 3 
0000526B CC                                           INT 3 
0000526C CC                                           INT 3 
0000526D CC                                           INT 3 
0000526E CC                                           INT 3 
0000526F CC                                           INT 3 
00005270 CC                                           INT 3 
00005271 CC                                           INT 3 
00005272 CC                                           INT 3 
00005273 CC                                           INT 3 
00005274 CC                                           INT 3 
00005275 CC                                           INT 3 
00005276 CC                                           INT 3 
00005277 CC                                           INT 3 
00005278 CC                                           INT 3 
00005279 CC                                           INT 3 
0000527A CC                                           INT 3 
0000527B CC                                           INT 3 
0000527C CC                                           INT 3 
0000527D CC                                           INT 3 
0000527E CC                                           INT 3 
0000527F CC                                           INT 3 
00005280 CC                                           INT 3 
00005281 CC                                           INT 3 
00005282 CC                                           INT 3 
00005283 CC                                           INT 3 
00005284 CC                                           INT 3 
00005285 CC                                           INT 3 
00005286 CC                                           INT 3 
00005287 CC                                           INT 3 
00005288 CC                                           INT 3 
00005289 CC                                           INT 3 
0000528A CC                                           INT 3 
0000528B CC                                           INT 3 
0000528C CC                                           INT 3 
0000528D CC                                           INT 3 
0000528E CC                                           INT 3 
0000528F CC                                           INT 3 
00005290 CC                                           INT 3 
00005291 CC                                           INT 3 
00005292 CC                                           INT 3 
00005293 CC                                           INT 3 
00005294 CC                                           INT 3 
00005295 CC                                           INT 3 
00005296 CC                                           INT 3 
00005297 CC                                           INT 3 
00005298 CC                                           INT 3 
00005299 CC                                           INT 3 
0000529A CC                                           INT 3 
0000529B CC                                           INT 3 
0000529C CC                                           INT 3 
0000529D CC                                           INT 3 
0000529E CC                                           INT 3 
0000529F CC                                           INT 3 
000052A0 CC                                           INT 3 
000052A1 CC                                           INT 3 
000052A2 CC                                           INT 3 
000052A3 CC                                           INT 3 
000052A4 CC                                           INT 3 
000052A5 CC                                           INT 3 
000052A6 CC                                           INT 3 
000052A7 CC                                           INT 3 
000052A8 CC                                           INT 3 
000052A9 CC                                           INT 3 
000052AA CC                                           INT 3 
000052AB CC                                           INT 3 
000052AC CC                                           INT 3 
000052AD CC                                           INT 3 
000052AE CC                                           INT 3 
000052AF CC                                           INT 3 
000052B0 CC                                           INT 3 
000052B1 CC                                           INT 3 
000052B2 CC                                           INT 3 
000052B3 CC                                           INT 3 
000052B4 CC                                           INT 3 
000052B5 CC                                           INT 3 
000052B6 CC                                           INT 3 
000052B7 CC                                           INT 3 
000052B8 CC                                           INT 3 
000052B9 CC                                           INT 3 
000052BA CC                                           INT 3 
000052BB CC                                           INT 3 
000052BC CC                                           INT 3 
000052BD CC                                           INT 3 
000052BE CC                                           INT 3 
000052BF CC                                           INT 3 
000052C0 CC                                           INT 3 
000052C1 CC                                           INT 3 
000052C2 CC                                           INT 3 
000052C3 CC                                           INT 3 
000052C4 CC                                           INT 3 
000052C5 CC                                           INT 3 
000052C6 CC                                           INT 3 
000052C7 CC                                           INT 3 
000052C8 CC                                           INT 3 
000052C9 CC                                           INT 3 
000052CA CC                                           INT 3 
000052CB CC                                           INT 3 
000052CC CC                                           INT 3 
000052CD CC                                           INT 3 
000052CE CC                                           INT 3 
000052CF CC                                           INT 3 
000052D0 CC                                           INT 3 
000052D1 CC                                           INT 3 
000052D2 CC                                           INT 3 
000052D3 CC                                           INT 3 
000052D4 CC                                           INT 3 
000052D5 CC                                           INT 3 
000052D6 CC                                           INT 3 
000052D7 CC                                           INT 3 
000052D8 CC                                           INT 3 
000052D9 CC                                           INT 3 
000052DA CC                                           INT 3 
000052DB CC                                           INT 3 
000052DC CC                                           INT 3 
000052DD CC                                           INT 3 
000052DE CC                                           INT 3 
000052DF CC                                           INT 3 
000052E0 CC                                           INT 3 
000052E1 CC                                           INT 3 
000052E2 CC                                           INT 3 
000052E3 CC                                           INT 3 
000052E4 CC                                           INT 3 
000052E5 CC                                           INT 3 
000052E6 CC                                           INT 3 
000052E7 CC                                           INT 3 
000052E8 CC                                           INT 3 
000052E9 CC                                           INT 3 
000052EA CC                                           INT 3 
000052EB CC                                           INT 3 
000052EC CC                                           INT 3 
000052ED CC                                           INT 3 
000052EE CC                                           INT 3 
000052EF CC                                           INT 3 
000052F0 CC                                           INT 3 
000052F1 CC                                           INT 3 
000052F2 CC                                           INT 3 
000052F3 CC                                           INT 3 
000052F4 CC                                           INT 3 
000052F5 CC                                           INT 3 
000052F6 CC                                           INT 3 
000052F7 CC                                           INT 3 
000052F8 CC                                           INT 3 
000052F9 CC                                           INT 3 
000052FA CC                                           INT 3 
000052FB CC                                           INT 3 
000052FC CC                                           INT 3 
000052FD CC                                           INT 3 
000052FE CC                                           INT 3 
000052FF CC                                           INT 3 
00005300 CC                                           INT 3 
00005301 CC                                           INT 3 
00005302 CC                                           INT 3 
00005303 CC                                           INT 3 
00005304 CC                                           INT 3 
00005305 CC                                           INT 3 
00005306 CC                                           INT 3 
00005307 CC                                           INT 3 
00005308 CC                                           INT 3 
00005309 CC                                           INT 3 
0000530A CC                                           INT 3 
0000530B CC                                           INT 3 
0000530C CC                                           INT 3 
0000530D CC                                           INT 3 
0000530E CC                                           INT 3 
0000530F CC                                           INT 3 
00005310 CC                                           INT 3 
00005311 CC                                           INT 3 
00005312 CC                                           INT 3 
00005313 CC                                           INT 3 
00005314 CC                                           INT 3 
00005315 CC                                           INT 3 
00005316 CC                                           INT 3 
00005317 CC                                           INT 3 
00005318 CC                                           INT 3 
00005319 CC                                           INT 3 
0000531A CC                                           INT 3 
0000531B CC                                           INT 3 
0000531C CC                                           INT 3 
0000531D CC                                           INT 3 
0000531E CC                                           INT 3 
0000531F CC                                           INT 3 
00005320 CC                                           INT 3 
00005321 CC                                           INT 3 
00005322 CC                                           INT 3 
00005323 CC                                           INT 3 
00005324 CC                                           INT 3 
00005325 CC                                           INT 3 
00005326 CC                                           INT 3 
00005327 CC                                           INT 3 
00005328 CC                                           INT 3 
00005329 CC                                           INT 3 
0000532A CC                                           INT 3 
0000532B CC                                           INT 3 
0000532C CC                                           INT 3 
0000532D CC                                           INT 3 
0000532E CC                                           INT 3 
0000532F CC                                           INT 3 
00005330 CC                                           INT 3 
00005331 CC                                           INT 3 
00005332 CC                                           INT 3 
00005333 CC                                           INT 3 
00005334 CC                                           INT 3 
00005335 CC                                           INT 3 
00005336 CC                                           INT 3 
00005337 CC                                           INT 3 
00005338 CC                                           INT 3 
00005339 CC                                           INT 3 
0000533A CC                                           INT 3 
0000533B CC                                           INT 3 
0000533C CC                                           INT 3 
0000533D CC                                           INT 3 
0000533E CC                                           INT 3 
0000533F CC                                           INT 3 
00005340 CC                                           INT 3 
00005341 CC                                           INT 3 
00005342 CC                                           INT 3 
00005343 CC                                           INT 3 
00005344 CC                                           INT 3 
00005345 CC                                           INT 3 
00005346 CC                                           INT 3 
00005347 CC                                           INT 3 
00005348 CC                                           INT 3 
00005349 CC                                           INT 3 
0000534A CC                                           INT 3 
0000534B CC                                           INT 3 
0000534C CC                                           INT 3 
0000534D CC                                           INT 3 
0000534E CC                                           INT 3 
0000534F CC                                           INT 3 
00005350 CC                                           INT 3 
00005351 CC                                           INT 3 
00005352 CC                                           INT 3 
00005353 CC                                           INT 3 
00005354 CC                                           INT 3 
00005355 CC                                           INT 3 
00005356 CC                                           INT 3 
00005357 CC                                           INT 3 
00005358 CC                                           INT 3 
00005359 CC                                           INT 3 
0000535A CC                                           INT 3 
0000535B CC                                           INT 3 
0000535C CC                                           INT 3 
0000535D CC                                           INT 3 
0000535E CC                                           INT 3 
0000535F CC                                           INT 3 
00005360 CC                                           INT 3 
00005361 CC                                           INT 3 
00005362 CC                                           INT 3 
00005363 CC                                           INT 3 
00005364 CC                                           INT 3 
00005365 CC                                           INT 3 
00005366 CC                                           INT 3 
00005367 CC                                           INT 3 
00005368 CC                                           INT 3 
00005369 CC                                           INT 3 
0000536A CC                                           INT 3 
0000536B CC                                           INT 3 
0000536C CC                                           INT 3 
0000536D CC                                           INT 3 
0000536E CC                                           INT 3 
0000536F CC                                           INT 3 
00005370 CC                                           INT 3 
00005371 CC                                           INT 3 
00005372 CC                                           INT 3 
00005373 CC                                           INT 3 
00005374 CC                                           INT 3 
00005375 CC                                           INT 3 
00005376 CC                                           INT 3 
00005377 CC                                           INT 3 
00005378 CC                                           INT 3 
00005379 CC                                           INT 3 
0000537A CC                                           INT 3 
0000537B CC                                           INT 3 
0000537C CC                                           INT 3 
0000537D CC                                           INT 3 
0000537E CC                                           INT 3 
0000537F CC                                           INT 3 
00005380 CC                                           INT 3 
00005381 CC                                           INT 3 
00005382 CC                                           INT 3 
00005383 CC                                           INT 3 
00005384 CC                                           INT 3 
00005385 CC                                           INT 3 
00005386 CC                                           INT 3 
00005387 CC                                           INT 3 
00005388 CC                                           INT 3 
00005389 CC                                           INT 3 
0000538A CC                                           INT 3 
0000538B CC                                           INT 3 
0000538C CC                                           INT 3 
0000538D CC                                           INT 3 
0000538E CC                                           INT 3 
0000538F CC                                           INT 3 
00005390 CC                                           INT 3 
00005391 CC                                           INT 3 
00005392 CC                                           INT 3 
00005393 CC                                           INT 3 
00005394 CC                                           INT 3 
00005395 CC                                           INT 3 
00005396 CC                                           INT 3 
00005397 CC                                           INT 3 
00005398 CC                                           INT 3 
00005399 CC                                           INT 3 
0000539A CC                                           INT 3 
0000539B CC                                           INT 3 
0000539C CC                                           INT 3 
0000539D CC                                           INT 3 
0000539E CC                                           INT 3 
0000539F CC                                           INT 3 
000053A0 CC                                           INT 3 
000053A1 CC                                           INT 3 
000053A2 CC                                           INT 3 
000053A3 CC                                           INT 3 
000053A4 CC                                           INT 3 
000053A5 CC                                           INT 3 
000053A6 CC                                           INT 3 
000053A7 CC                                           INT 3 
000053A8 CC                                           INT 3 
000053A9 CC                                           INT 3 
000053AA CC                                           INT 3 
000053AB CC                                           INT 3 
000053AC CC                                           INT 3 
000053AD CC                                           INT 3 
000053AE CC                                           INT 3 
000053AF CC                                           INT 3 
000053B0 CC                                           INT 3 
000053B1 CC                                           INT 3 
000053B2 CC                                           INT 3 
000053B3 CC                                           INT 3 
000053B4 CC                                           INT 3 
000053B5 CC                                           INT 3 
000053B6 CC                                           INT 3 
000053B7 CC                                           INT 3 
000053B8 CC                                           INT 3 
000053B9 CC                                           INT 3 
000053BA CC                                           INT 3 
000053BB CC                                           INT 3 
000053BC CC                                           INT 3 
000053BD CC                                           INT 3 
000053BE CC                                           INT 3 
000053BF CC                                           INT 3 
000053C0 CC                                           INT 3 
000053C1 CC                                           INT 3 
000053C2 CC                                           INT 3 
000053C3 CC                                           INT 3 
000053C4 CC                                           INT 3 
000053C5 CC                                           INT 3 
000053C6 CC                                           INT 3 
000053C7 CC                                           INT 3 
000053C8 CC                                           INT 3 
000053C9 CC                                           INT 3 
000053CA CC                                           INT 3 
000053CB CC                                           INT 3 
000053CC CC                                           INT 3 
000053CD CC                                           INT 3 
000053CE CC                                           INT 3 
000053CF CC                                           INT 3 
000053D0 CC                                           INT 3 
000053D1 CC                                           INT 3 
000053D2 CC                                           INT 3 
000053D3 CC                                           INT 3 
000053D4 CC                                           INT 3 
000053D5 CC                                           INT 3 
000053D6 CC                                           INT 3 
000053D7 CC                                           INT 3 
000053D8 CC                                           INT 3 
000053D9 CC                                           INT 3 
000053DA CC                                           INT 3 
000053DB CC                                           INT 3 
000053DC CC                                           INT 3 
000053DD CC                                           INT 3 
000053DE CC                                           INT 3 
000053DF CC                                           INT 3 
000053E0 CC                                           INT 3 
000053E1 CC                                           INT 3 
000053E2 CC                                           INT 3 
000053E3 CC                                           INT 3 
000053E4 CC                                           INT 3 
000053E5 CC                                           INT 3 
000053E6 CC                                           INT 3 
000053E7 CC                                           INT 3 
000053E8 CC                                           INT 3 
000053E9 CC                                           INT 3 
000053EA CC                                           INT 3 
000053EB CC                                           INT 3 
000053EC CC                                           INT 3 
000053ED CC                                           INT 3 
000053EE CC                                           INT 3 
000053EF CC                                           INT 3 
000053F0 CC                                           INT 3 
000053F1 CC                                           INT 3 
000053F2 CC                                           INT 3 
000053F3 CC                                           INT 3 
000053F4 CC                                           INT 3 
000053F5 CC                                           INT 3 
000053F6 CC                                           INT 3 
000053F7 CC                                           INT 3 
000053F8 CC                                           INT 3 
000053F9 CC                                           INT 3 
000053FA CC                                           INT 3 
000053FB CC                                           INT 3 
000053FC CC                                           INT 3 
000053FD CC                                           INT 3 
000053FE CC                                           INT 3 
000053FF CC                                           INT 3 
00005400 CC                                           INT 3 
00005401 CC                                           INT 3 
00005402 CC                                           INT 3 
00005403 CC                                           INT 3 
00005404 CC                                           INT 3 
00005405 CC                                           INT 3 
00005406 CC                                           INT 3 
00005407 CC                                           INT 3 
00005408 CC                                           INT 3 
00005409 CC                                           INT 3 
0000540A CC                                           INT 3 
0000540B CC                                           INT 3 
0000540C CC                                           INT 3 
0000540D CC                                           INT 3 
0000540E CC                                           INT 3 
0000540F CC                                           INT 3 
00005410 CC                                           INT 3 
00005411 CC                                           INT 3 
00005412 CC                                           INT 3 
00005413 CC                                           INT 3 
00005414 CC                                           INT 3 
00005415 CC                                           INT 3 
00005416 CC                                           INT 3 
00005417 CC                                           INT 3 
00005418 CC                                           INT 3 
00005419 CC                                           INT 3 
0000541A CC                                           INT 3 
0000541B CC                                           INT 3 
0000541C CC                                           INT 3 
0000541D CC                                           INT 3 
0000541E CC                                           INT 3 
0000541F CC                                           INT 3 
00005420 CC                                           INT 3 
00005421 CC                                           INT 3 
00005422 CC                                           INT 3 
00005423 CC                                           INT 3 
00005424 CC                                           INT 3 
00005425 CC                                           INT 3 
00005426 CC                                           INT 3 
00005427 CC                                           INT 3 
00005428 CC                                           INT 3 
00005429 CC                                           INT 3 
0000542A CC                                           INT 3 
0000542B CC                                           INT 3 
0000542C CC                                           INT 3 
0000542D CC                                           INT 3 
0000542E CC                                           INT 3 
0000542F CC                                           INT 3 
00005430 CC                                           INT 3 
00005431 CC                                           INT 3 
00005432 CC                                           INT 3 
00005433 CC                                           INT 3 
00005434 CC                                           INT 3 
00005435 CC                                           INT 3 
00005436 CC                                           INT 3 
00005437 CC                                           INT 3 
00005438 CC                                           INT 3 
00005439 CC                                           INT 3 
0000543A CC                                           INT 3 
0000543B CC                                           INT 3 
0000543C CC                                           INT 3 
0000543D CC                                           INT 3 
0000543E CC                                           INT 3 
0000543F CC                                           INT 3 
00005440 CC                                           INT 3 
00005441 CC                                           INT 3 
00005442 CC                                           INT 3 
00005443 CC                                           INT 3 
00005444 CC                                           INT 3 
00005445 CC                                           INT 3 
00005446 CC                                           INT 3 
00005447 CC                                           INT 3 
00005448 CC                                           INT 3 
00005449 CC                                           INT 3 
0000544A CC                                           INT 3 
0000544B CC                                           INT 3 
0000544C CC                                           INT 3 
0000544D CC                                           INT 3 
0000544E CC                                           INT 3 
0000544F CC                                           INT 3 
00005450 CC                                           INT 3 
00005451 CC                                           INT 3 
00005452 CC                                           INT 3 
00005453 CC                                           INT 3 
00005454 CC                                           INT 3 
00005455 CC                                           INT 3 
00005456 CC                                           INT 3 
00005457 CC                                           INT 3 
00005458 CC                                           INT 3 
00005459 CC                                           INT 3 
0000545A CC                                           INT 3 
0000545B CC                                           INT 3 
0000545C CC                                           INT 3 
0000545D CC                                           INT 3 
0000545E CC                                           INT 3 
0000545F CC                                           INT 3 
00005460 CC                                           INT 3 
00005461 CC                                           INT 3 
00005462 CC                                           INT 3 
00005463 CC                                           INT 3 
00005464 CC                                           INT 3 
00005465 CC                                           INT 3 
00005466 CC                                           INT 3 
00005467 CC                                           INT 3 
00005468 CC                                           INT 3 
00005469 CC                                           INT 3 
0000546A CC                                           INT 3 
0000546B CC                                           INT 3 
0000546C CC                                           INT 3 
0000546D CC                                           INT 3 
0000546E CC                                           INT 3 
0000546F CC                                           INT 3 
00005470 CC                                           INT 3 
00005471 CC                                           INT 3 
00005472 CC                                           INT 3 
00005473 CC                                           INT 3 
00005474 CC                                           INT 3 
00005475 CC                                           INT 3 
00005476 CC                                           INT 3 
00005477 CC                                           INT 3 
00005478 CC                                           INT 3 
00005479 CC                                           INT 3 
0000547A CC                                           INT 3 
0000547B CC                                           INT 3 
0000547C CC                                           INT 3 
0000547D CC                                           INT 3 
0000547E CC                                           INT 3 
0000547F CC                                           INT 3 
00005480 CC                                           INT 3 
00005481 CC                                           INT 3 
00005482 CC                                           INT 3 
00005483 CC                                           INT 3 
00005484 CC                                           INT 3 
00005485 CC                                           INT 3 
00005486 CC                                           INT 3 
00005487 CC                                           INT 3 
00005488 CC                                           INT 3 
00005489 CC                                           INT 3 
0000548A CC                                           INT 3 
0000548B CC                                           INT 3 
0000548C CC                                           INT 3 
0000548D CC                                           INT 3 
0000548E CC                                           INT 3 
0000548F CC                                           INT 3 
00005490 CC                                           INT 3 
00005491 CC                                           INT 3 
00005492 CC                                           INT 3 
00005493 CC                                           INT 3 
00005494 CC                                           INT 3 
00005495 CC                                           INT 3 
00005496 CC                                           INT 3 
00005497 CC                                           INT 3 
00005498 CC                                           INT 3 
00005499 CC                                           INT 3 
0000549A CC                                           INT 3 
0000549B CC                                           INT 3 
0000549C CC                                           INT 3 
0000549D CC                                           INT 3 
0000549E CC                                           INT 3 
0000549F CC                                           INT 3 
000054A0 CC                                           INT 3 
000054A1 CC                                           INT 3 
000054A2 CC                                           INT 3 
000054A3 CC                                           INT 3 
000054A4 CC                                           INT 3 
000054A5 CC                                           INT 3 
000054A6 CC                                           INT 3 
000054A7 CC                                           INT 3 
000054A8 CC                                           INT 3 
000054A9 CC                                           INT 3 
000054AA CC                                           INT 3 
000054AB CC                                           INT 3 
000054AC CC                                           INT 3 
000054AD CC                                           INT 3 
000054AE CC                                           INT 3 
000054AF CC                                           INT 3 
000054B0 CC                                           INT 3 
000054B1 CC                                           INT 3 
000054B2 CC                                           INT 3 
000054B3 CC                                           INT 3 
000054B4 CC                                           INT 3 
000054B5 CC                                           INT 3 
000054B6 CC                                           INT 3 
000054B7 CC                                           INT 3 
000054B8 CC                                           INT 3 
000054B9 CC                                           INT 3 
000054BA CC                                           INT 3 
000054BB CC                                           INT 3 
000054BC CC                                           INT 3 
000054BD CC                                           INT 3 
000054BE CC                                           INT 3 
000054BF CC                                           INT 3 
000054C0 CC                                           INT 3 
000054C1 CC                                           INT 3 
000054C2 CC                                           INT 3 
000054C3 CC                                           INT 3 
000054C4 CC                                           INT 3 
000054C5 CC                                           INT 3 
000054C6 CC                                           INT 3 
000054C7 CC                                           INT 3 
000054C8 CC                                           INT 3 
000054C9 CC                                           INT 3 
000054CA CC                                           INT 3 
000054CB CC                                           INT 3 
000054CC CC                                           INT 3 
000054CD CC                                           INT 3 
000054CE CC                                           INT 3 
000054CF CC                                           INT 3 
000054D0 CC                                           INT 3 
000054D1 CC                                           INT 3 
000054D2 CC                                           INT 3 
000054D3 CC                                           INT 3 
000054D4 CC                                           INT 3 
000054D5 CC                                           INT 3 
000054D6 CC                                           INT 3 
000054D7 CC                                           INT 3 
000054D8 CC                                           INT 3 
000054D9 CC                                           INT 3 
000054DA CC                                           INT 3 
000054DB CC                                           INT 3 
000054DC CC                                           INT 3 
000054DD CC                                           INT 3 
000054DE CC                                           INT 3 
000054DF CC                                           INT 3 
000054E0 CC                                           INT 3 
000054E1 CC                                           INT 3 
000054E2 CC                                           INT 3 
000054E3 CC                                           INT 3 
000054E4 CC                                           INT 3 
000054E5 CC                                           INT 3 
000054E6 CC                                           INT 3 
000054E7 CC                                           INT 3 
000054E8 CC                                           INT 3 
000054E9 CC                                           INT 3 
000054EA CC                                           INT 3 
000054EB CC                                           INT 3 
000054EC CC                                           INT 3 
000054ED CC                                           INT 3 
000054EE CC                                           INT 3 
000054EF CC                                           INT 3 
000054F0 CC                                           INT 3 
000054F1 CC                                           INT 3 
000054F2 CC                                           INT 3 
000054F3 CC                                           INT 3 
000054F4 CC                                           INT 3 
000054F5 CC                                           INT 3 
000054F6 CC                                           INT 3 
000054F7 CC                                           INT 3 
000054F8 CC                                           INT 3 
000054F9 CC                                           INT 3 
000054FA CC                                           INT 3 
000054FB CC                                           INT 3 
000054FC CC                                           INT 3 
000054FD CC                                           INT 3 
000054FE CC                                           INT 3 
000054FF CC                                           INT 3 
00005500 CC                                           INT 3 
00005501 CC                                           INT 3 
00005502 CC                                           INT 3 
00005503 CC                                           INT 3 
00005504 CC                                           INT 3 
00005505 CC                                           INT 3 
00005506 CC                                           INT 3 
00005507 CC                                           INT 3 
00005508 CC                                           INT 3 
00005509 CC                                           INT 3 
0000550A CC                                           INT 3 
0000550B CC                                           INT 3 
0000550C CC                                           INT 3 
0000550D CC                                           INT 3 
0000550E CC                                           INT 3 
0000550F CC                                           INT 3 
00005510 CC                                           INT 3 
00005511 CC                                           INT 3 
00005512 CC                                           INT 3 
00005513 CC                                           INT 3 
00005514 CC                                           INT 3 
00005515 CC                                           INT 3 
00005516 CC                                           INT 3 
00005517 CC                                           INT 3 
00005518 CC                                           INT 3 
00005519 CC                                           INT 3 
0000551A CC                                           INT 3 
0000551B CC                                           INT 3 
0000551C CC                                           INT 3 
0000551D CC                                           INT 3 
0000551E CC                                           INT 3 
0000551F CC                                           INT 3 
00005520 CC                                           INT 3 
00005521 CC                                           INT 3 
00005522 CC                                           INT 3 
00005523 CC                                           INT 3 
00005524 CC                                           INT 3 
00005525 CC                                           INT 3 
00005526 CC                                           INT 3 
00005527 CC                                           INT 3 
00005528 CC                                           INT 3 
00005529 CC                                           INT 3 
0000552A CC                                           INT 3 
0000552B CC                                           INT 3 
0000552C CC                                           INT 3 
0000552D CC                                           INT 3 
0000552E CC                                           INT 3 
0000552F CC                                           INT 3 
00005530 CC                                           INT 3 
00005531 CC                                           INT 3 
00005532 CC                                           INT 3 
00005533 CC                                           INT 3 
00005534 CC                                           INT 3 
00005535 CC                                           INT 3 
00005536 CC                                           INT 3 
00005537 CC                                           INT 3 
00005538 CC                                           INT 3 
00005539 CC                                           INT 3 
0000553A CC                                           INT 3 
0000553B CC                                           INT 3 
0000553C CC                                           INT 3 
0000553D CC                                           INT 3 
0000553E CC                                           INT 3 
0000553F CC                                           INT 3 
00005540 CC                                           INT 3 
00005541 CC                                           INT 3 
00005542 CC                                           INT 3 
00005543 CC                                           INT 3 
00005544 CC                                           INT 3 
00005545 CC                                           INT 3 
00005546 CC                                           INT 3 
00005547 CC                                           INT 3 
00005548 CC                                           INT 3 
00005549 CC                                           INT 3 
0000554A CC                                           INT 3 
0000554B CC                                           INT 3 
0000554C CC                                           INT 3 
0000554D CC                                           INT 3 
0000554E CC                                           INT 3 
0000554F CC                                           INT 3 
00005550 CC                                           INT 3 
00005551 CC                                           INT 3 
00005552 CC                                           INT 3 
00005553 CC                                           INT 3 
00005554 CC                                           INT 3 
00005555 CC                                           INT 3 
00005556 CC                                           INT 3 
00005557 CC                                           INT 3 
00005558 CC                                           INT 3 
00005559 CC                                           INT 3 
0000555A CC                                           INT 3 
0000555B CC                                           INT 3 
0000555C CC                                           INT 3 
0000555D CC                                           INT 3 
0000555E CC                                           INT 3 
0000555F CC                                           INT 3 
00005560 CC                                           INT 3 
00005561 CC                                           INT 3 
00005562 CC                                           INT 3 
00005563 CC                                           INT 3 
00005564 CC                                           INT 3 
00005565 CC                                           INT 3 
00005566 CC                                           INT 3 
00005567 CC                                           INT 3 
00005568 CC                                           INT 3 
00005569 CC                                           INT 3 
0000556A CC                                           INT 3 
0000556B CC                                           INT 3 
0000556C CC                                           INT 3 
0000556D CC                                           INT 3 
0000556E CC                                           INT 3 
0000556F CC                                           INT 3 
00005570 CC                                           INT 3 
00005571 CC                                           INT 3 
00005572 CC                                           INT 3 
00005573 CC                                           INT 3 
00005574 CC                                           INT 3 
00005575 CC                                           INT 3 
00005576 CC                                           INT 3 
00005577 CC                                           INT 3 
00005578 CC                                           INT 3 
00005579 CC                                           INT 3 
0000557A CC                                           INT 3 
0000557B CC                                           INT 3 
0000557C CC                                           INT 3 
0000557D CC                                           INT 3 
0000557E CC                                           INT 3 
0000557F CC                                           INT 3 
00005580 CC                                           INT 3 
00005581 CC                                           INT 3 
00005582 CC                                           INT 3 
00005583 CC                                           INT 3 
00005584 CC                                           INT 3 
00005585 CC                                           INT 3 
00005586 CC                                           INT 3 
00005587 CC                                           INT 3 
00005588 CC                                           INT 3 
00005589 CC                                           INT 3 
0000558A CC                                           INT 3 
0000558B CC                                           INT 3 
0000558C CC                                           INT 3 
0000558D CC                                           INT 3 
0000558E CC                                           INT 3 
0000558F CC                                           INT 3 
00005590 CC                                           INT 3 
00005591 CC                                           INT 3 
00005592 CC                                           INT 3 
00005593 CC                                           INT 3 
00005594 CC                                           INT 3 
00005595 CC                                           INT 3 
00005596 CC                                           INT 3 
00005597 CC                                           INT 3 
00005598 CC                                           INT 3 
00005599 CC                                           INT 3 
0000559A CC                                           INT 3 
0000559B CC                                           INT 3 
0000559C CC                                           INT 3 
0000559D CC                                           INT 3 
0000559E CC                                           INT 3 
0000559F CC                                           INT 3 
000055A0 CC                                           INT 3 
000055A1 CC                                           INT 3 
000055A2 CC                                           INT 3 
000055A3 CC                                           INT 3 
000055A4 CC                                           INT 3 
000055A5 CC                                           INT 3 
000055A6 CC                                           INT 3 
000055A7 CC                                           INT 3 
000055A8 CC                                           INT 3 
000055A9 CC                                           INT 3 
000055AA CC                                           INT 3 
000055AB CC                                           INT 3 
000055AC CC                                           INT 3 
000055AD CC                                           INT 3 
000055AE CC                                           INT 3 
000055AF CC                                           INT 3 
000055B0 CC                                           INT 3 
000055B1 CC                                           INT 3 
000055B2 CC                                           INT 3 
000055B3 CC                                           INT 3 
000055B4 CC                                           INT 3 
000055B5 CC                                           INT 3 
000055B6 CC                                           INT 3 
000055B7 CC                                           INT 3 
000055B8 CC                                           INT 3 
000055B9 CC                                           INT 3 
000055BA CC                                           INT 3 
000055BB CC                                           INT 3 
000055BC CC                                           INT 3 
000055BD CC                                           INT 3 
000055BE CC                                           INT 3 
000055BF CC                                           INT 3 
000055C0 CC                                           INT 3 
000055C1 CC                                           INT 3 
000055C2 CC                                           INT 3 
000055C3 CC                                           INT 3 
000055C4 CC                                           INT 3 
000055C5 CC                                           INT 3 
000055C6 CC                                           INT 3 
000055C7 CC                                           INT 3 
000055C8 CC                                           INT 3 
000055C9 CC                                           INT 3 
000055CA CC                                           INT 3 
000055CB CC                                           INT 3 
000055CC CC                                           INT 3 
000055CD CC                                           INT 3 
000055CE CC                                           INT 3 
000055CF CC                                           INT 3 
000055D0 CC                                           INT 3 
000055D1 CC                                           INT 3 
000055D2 CC                                           INT 3 
000055D3 CC                                           INT 3 
000055D4 CC                                           INT 3 
000055D5 CC                                           INT 3 
000055D6 CC                                           INT 3 
000055D7 CC                                           INT 3 
000055D8 CC                                           INT 3 
000055D9 CC                                           INT 3 
000055DA CC                                           INT 3 
000055DB CC                                           INT 3 
000055DC CC                                           INT 3 
000055DD CC                                           INT 3 
000055DE CC                                           INT 3 
000055DF CC                                           INT 3 
000055E0 CC                                           INT 3 
000055E1 CC                                           INT 3 
000055E2 CC                                           INT 3 
000055E3 CC                                           INT 3 
000055E4 CC                                           INT 3 
000055E5 CC                                           INT 3 
000055E6 CC                                           INT 3 
000055E7 CC                                           INT 3 
000055E8 CC                                           INT 3 
000055E9 CC                                           INT 3 
000055EA CC                                           INT 3 
000055EB CC                                           INT 3 
000055EC CC                                           INT 3 
000055ED CC                                           INT 3 
000055EE CC                                           INT 3 
000055EF CC                                           INT 3 
000055F0 CC                                           INT 3 
000055F1 CC                                           INT 3 
000055F2 CC                                           INT 3 
000055F3 CC                                           INT 3 
000055F4 CC                                           INT 3 
000055F5 CC                                           INT 3 
000055F6 CC                                           INT 3 
000055F7 CC                                           INT 3 
000055F8 CC                                           INT 3 
000055F9 CC                                           INT 3 
000055FA CC                                           INT 3 
000055FB CC                                           INT 3 
000055FC CC                                           INT 3 
000055FD CC                                           INT 3 
000055FE CC                                           INT 3 
000055FF CC                                           INT 3 
00005600 CC                                           INT 3 
00005601 CC                                           INT 3 
00005602 CC                                           INT 3 
00005603 CC                                           INT 3 
00005604 CC                                           INT 3 
00005605 CC                                           INT 3 
00005606 CC                                           INT 3 
00005607 CC                                           INT 3 
00005608 CC                                           INT 3 
00005609 CC                                           INT 3 
0000560A CC                                           INT 3 
0000560B CC                                           INT 3 
0000560C CC                                           INT 3 
0000560D CC                                           INT 3 
0000560E CC                                           INT 3 
0000560F CC                                           INT 3 
00005610 CC                                           INT 3 
00005611 CC                                           INT 3 
00005612 CC                                           INT 3 
00005613 CC                                           INT 3 
00005614 CC                                           INT 3 
00005615 CC                                           INT 3 
00005616 CC                                           INT 3 
00005617 CC                                           INT 3 
00005618 CC                                           INT 3 
00005619 CC                                           INT 3 
0000561A CC                                           INT 3 
0000561B CC                                           INT 3 
0000561C CC                                           INT 3 
0000561D CC                                           INT 3 
0000561E CC                                           INT 3 
0000561F CC                                           INT 3 
00005620 CC                                           INT 3 
00005621 CC                                           INT 3 
00005622 CC                                           INT 3 
00005623 CC                                           INT 3 
00005624 CC                                           INT 3 
00005625 CC                                           INT 3 
00005626 CC                                           INT 3 
00005627 CC                                           INT 3 
00005628 CC                                           INT 3 
00005629 CC                                           INT 3 
0000562A CC                                           INT 3 
0000562B CC                                           INT 3 
0000562C CC                                           INT 3 
0000562D CC                                           INT 3 
0000562E CC                                           INT 3 
0000562F CC                                           INT 3 
00005630 CC                                           INT 3 
00005631 CC                                           INT 3 
00005632 CC                                           INT 3 
00005633 CC                                           INT 3 
00005634 CC                                           INT 3 
00005635 CC                                           INT 3 
00005636 CC                                           INT 3 
00005637 CC                                           INT 3 
00005638 CC                                           INT 3 
00005639 CC                                           INT 3 
0000563A CC                                           INT 3 
0000563B CC                                           INT 3 
0000563C CC                                           INT 3 
0000563D CC                                           INT 3 
0000563E CC                                           INT 3 
0000563F CC                                           INT 3 
00005640 CC                                           INT 3 
00005641 CC                                           INT 3 
00005642 CC                                           INT 3 
00005643 CC                                           INT 3 
00005644 CC                                           INT 3 
00005645 CC                                           INT 3 
00005646 CC                                           INT 3 
00005647 CC                                           INT 3 
00005648 CC                                           INT 3 
00005649 CC                                           INT 3 
0000564A CC                                           INT 3 
0000564B CC                                           INT 3 
0000564C CC                                           INT 3 
0000564D CC                                           INT 3 
0000564E CC                                           INT 3 
0000564F CC                                           INT 3 
00005650 CC                                           INT 3 
00005651 CC                                           INT 3 
00005652 CC                                           INT 3 
00005653 CC                                           INT 3 
00005654 CC                                           INT 3 
00005655 CC                                           INT 3 
00005656 CC                                           INT 3 
00005657 CC                                           INT 3 
00005658 CC                                           INT 3 
00005659 CC                                           INT 3 
0000565A CC                                           INT 3 
0000565B CC                                           INT 3 
0000565C CC                                           INT 3 
0000565D CC                                           INT 3 
0000565E CC                                           INT 3 
0000565F CC                                           INT 3 
00005660 CC                                           INT 3 
00005661 CC                                           INT 3 
00005662 CC                                           INT 3 
00005663 CC                                           INT 3 
00005664 CC                                           INT 3 
00005665 CC                                           INT 3 
00005666 CC                                           INT 3 
00005667 CC                                           INT 3 
00005668 CC                                           INT 3 
00005669 CC                                           INT 3 
0000566A CC                                           INT 3 
0000566B CC                                           INT 3 
0000566C CC                                           INT 3 
0000566D CC                                           INT 3 
0000566E CC                                           INT 3 
0000566F CC                                           INT 3 
00005670 CC                                           INT 3 
00005671 CC                                           INT 3 
00005672 CC                                           INT 3 
00005673 CC                                           INT 3 
00005674 CC                                           INT 3 
00005675 CC                                           INT 3 
00005676 CC                                           INT 3 
00005677 CC                                           INT 3 
00005678 CC                                           INT 3 
00005679 CC                                           INT 3 
0000567A CC                                           INT 3 
0000567B CC                                           INT 3 
0000567C CC                                           INT 3 
0000567D CC                                           INT 3 
0000567E CC                                           INT 3 
0000567F CC                                           INT 3 
00005680 CC                                           INT 3 
00005681 CC                                           INT 3 
00005682 CC                                           INT 3 
00005683 CC                                           INT 3 
00005684 CC                                           INT 3 
00005685 CC                                           INT 3 
00005686 CC                                           INT 3 
00005687 CC                                           INT 3 
00005688 CC                                           INT 3 
00005689 CC                                           INT 3 
0000568A CC                                           INT 3 
0000568B CC                                           INT 3 
0000568C CC                                           INT 3 
0000568D CC                                           INT 3 
0000568E CC                                           INT 3 
0000568F CC                                           INT 3 
00005690 CC                                           INT 3 
00005691 CC                                           INT 3 
00005692 CC                                           INT 3 
00005693 CC                                           INT 3 
00005694 CC                                           INT 3 
00005695 CC                                           INT 3 
00005696 CC                                           INT 3 
00005697 CC                                           INT 3 
00005698 CC                                           INT 3 
00005699 CC                                           INT 3 
0000569A CC                                           INT 3 
0000569B CC                                           INT 3 
0000569C CC                                           INT 3 
0000569D CC                                           INT 3 
0000569E CC                                           INT 3 
0000569F CC                                           INT 3 
000056A0 CC                                           INT 3 
000056A1 CC                                           INT 3 
000056A2 CC                                           INT 3 
000056A3 CC                                           INT 3 
000056A4 CC                                           INT 3 
000056A5 CC                                           INT 3 
000056A6 CC                                           INT 3 
000056A7 CC                                           INT 3 
000056A8 CC                                           INT 3 
000056A9 CC                                           INT 3 
000056AA CC                                           INT 3 
000056AB CC                                           INT 3 
000056AC CC                                           INT 3 
000056AD CC                                           INT 3 
000056AE CC                                           INT 3 
000056AF CC                                           INT 3 
000056B0 CC                                           INT 3 
000056B1 CC                                           INT 3 
000056B2 CC                                           INT 3 
000056B3 CC                                           INT 3 
000056B4 CC                                           INT 3 
000056B5 CC                                           INT 3 
000056B6 CC                                           INT 3 
000056B7 CC                                           INT 3 
000056B8 CC                                           INT 3 
000056B9 CC                                           INT 3 
000056BA CC                                           INT 3 
000056BB CC                                           INT 3 
000056BC CC                                           INT 3 
000056BD CC                                           INT 3 
000056BE CC                                           INT 3 
000056BF CC                                           INT 3 
000056C0 CC                                           INT 3 
000056C1 CC                                           INT 3 
000056C2 CC                                           INT 3 
000056C3 CC                                           INT 3 
000056C4 CC                                           INT 3 
000056C5 CC                                           INT 3 
000056C6 CC                                           INT 3 
000056C7 CC                                           INT 3 
000056C8 CC                                           INT 3 
000056C9 CC                                           INT 3 
000056CA CC                                           INT 3 
000056CB CC                                           INT 3 
000056CC CC                                           INT 3 
000056CD CC                                           INT 3 
000056CE CC                                           INT 3 
000056CF CC                                           INT 3 
000056D0 CC                                           INT 3 
000056D1 CC                                           INT 3 
000056D2 CC                                           INT 3 
000056D3 CC                                           INT 3 
000056D4 CC                                           INT 3 
000056D5 CC                                           INT 3 
000056D6 CC                                           INT 3 
000056D7 CC                                           INT 3 
000056D8 CC                                           INT 3 
000056D9 CC                                           INT 3 
000056DA CC                                           INT 3 
000056DB CC                                           INT 3 
000056DC CC                                           INT 3 
000056DD CC                                           INT 3 
000056DE CC                                           INT 3 
000056DF CC                                           INT 3 
000056E0 CC                                           INT 3 
000056E1 CC                                           INT 3 
000056E2 CC                                           INT 3 
000056E3 CC                                           INT 3 
000056E4 CC                                           INT 3 
000056E5 CC                                           INT 3 
000056E6 CC                                           INT 3 
000056E7 CC                                           INT 3 
000056E8 CC                                           INT 3 
000056E9 CC                                           INT 3 
000056EA CC                                           INT 3 
000056EB CC                                           INT 3 
000056EC CC                                           INT 3 
000056ED CC                                           INT 3 
000056EE CC                                           INT 3 
000056EF CC                                           INT 3 
000056F0 CC                                           INT 3 
000056F1 CC                                           INT 3 
000056F2 CC                                           INT 3 
000056F3 CC                                           INT 3 
000056F4 CC                                           INT 3 
000056F5 CC                                           INT 3 
000056F6 CC                                           INT 3 
000056F7 CC                                           INT 3 
000056F8 CC                                           INT 3 
000056F9 CC                                           INT 3 
000056FA CC                                           INT 3 
000056FB CC                                           INT 3 
000056FC CC                                           INT 3 
